	.cpu cortex-m4
	.eabi_attribute 27, 1
	.eabi_attribute 28, 1
	.eabi_attribute 20, 1
	.eabi_attribute 21, 1
	.eabi_attribute 23, 3
	.eabi_attribute 24, 1
	.eabi_attribute 25, 1
	.eabi_attribute 26, 1
	.eabi_attribute 30, 6
	.eabi_attribute 34, 1
	.eabi_attribute 18, 4
	.file	"drv_color.c"
	.text
.Ltext0:
	.section	.text.nrf_gpio_pin_port_decode,"ax",%progbits
	.align	1
	.syntax unified
	.thumb
	.thumb_func
	.fpu fpv4-sp-d16
	.type	nrf_gpio_pin_port_decode, %function
nrf_gpio_pin_port_decode:
.LFB168:
	.file 1 "../../../sdk_components/drivers_nrf/hal/nrf_gpio.h"
	.loc 1 463 1
	@ args = 0, pretend = 0, frame = 8
	@ frame_needed = 0, uses_anonymous_args = 0
	@ link register save eliminated.
	sub	sp, sp, #8
.LCFI0:
	str	r0, [sp, #4]
	.loc 1 467 12
	mov	r3, #1342177280
	.loc 1 479 1
	mov	r0, r3
	add	sp, sp, #8
.LCFI1:
	@ sp needed
	bx	lr
.LFE168:
	.size	nrf_gpio_pin_port_decode, .-nrf_gpio_pin_port_decode
	.section	.text.nrf_gpio_pin_read,"ax",%progbits
	.align	1
	.syntax unified
	.thumb
	.thumb_func
	.fpu fpv4-sp-d16
	.type	nrf_gpio_pin_read, %function
nrf_gpio_pin_read:
.LFB184:
	.loc 1 662 1
	@ args = 0, pretend = 0, frame = 16
	@ frame_needed = 0, uses_anonymous_args = 0
	push	{lr}
.LCFI2:
	sub	sp, sp, #20
.LCFI3:
	str	r0, [sp, #4]
	.loc 1 663 27
	add	r3, sp, #4
	mov	r0, r3
	bl	nrf_gpio_pin_port_decode
	str	r0, [sp, #12]
	.loc 1 665 14
	ldr	r0, [sp, #12]
	bl	nrf_gpio_port_in_read
	mov	r2, r0
	.loc 1 665 41
	ldr	r3, [sp, #4]
	lsr	r3, r2, r3
	.loc 1 665 56
	and	r3, r3, #1
	.loc 1 666 1
	mov	r0, r3
	add	sp, sp, #20
.LCFI4:
	@ sp needed
	ldr	pc, [sp], #4
.LFE184:
	.size	nrf_gpio_pin_read, .-nrf_gpio_pin_read
	.section	.text.nrf_gpio_port_in_read,"ax",%progbits
	.align	1
	.syntax unified
	.thumb
	.thumb_func
	.fpu fpv4-sp-d16
	.type	nrf_gpio_port_in_read, %function
nrf_gpio_port_in_read:
.LFB191:
	.loc 1 711 1
	@ args = 0, pretend = 0, frame = 8
	@ frame_needed = 0, uses_anonymous_args = 0
	@ link register save eliminated.
	sub	sp, sp, #8
.LCFI5:
	str	r0, [sp, #4]
	.loc 1 712 17
	ldr	r3, [sp, #4]
	ldr	r3, [r3, #1296]
	.loc 1 713 1
	mov	r0, r3
	add	sp, sp, #8
.LCFI6:
	@ sp needed
	bx	lr
.LFE191:
	.size	nrf_gpio_port_in_read, .-nrf_gpio_port_in_read
	.section	.bss.my_led_0_timings,"aw",%nobits
	.align	2
	.type	my_led_0_timings, %object
	.size	my_led_0_timings, 12
my_led_0_timings:
	.space	12
	.section	.bss.my_led_0_timer_data,"aw",%nobits
	.align	2
	.type	my_led_0_timer_data, %object
	.size	my_led_0_timer_data, 32
my_led_0_timer_data:
	.space	32
	.section	.data.my_led_0,"aw"
	.align	2
	.type	my_led_0, %object
	.size	my_led_0, 8
my_led_0:
	.word	my_led_0_timings
	.word	my_led_0_timer_data
	.section	.bss.my_led_1_timings,"aw",%nobits
	.align	2
	.type	my_led_1_timings, %object
	.size	my_led_1_timings, 12
my_led_1_timings:
	.space	12
	.section	.bss.my_led_1_timer_data,"aw",%nobits
	.align	2
	.type	my_led_1_timer_data, %object
	.size	my_led_1_timer_data, 32
my_led_1_timer_data:
	.space	32
	.section	.data.my_led_1,"aw"
	.align	2
	.type	my_led_1, %object
	.size	my_led_1, 8
my_led_1:
	.word	my_led_1_timings
	.word	my_led_1_timer_data
	.section	.rodata.BATT_MEAS_VOLTAGE_TO_SOC,"a"
	.align	2
	.type	BATT_MEAS_VOLTAGE_TO_SOC, %object
	.size	BATT_MEAS_VOLTAGE_TO_SOC, 111
BATT_MEAS_VOLTAGE_TO_SOC:
	.byte	0
	.byte	0
	.byte	1
	.byte	1
	.byte	1
	.byte	1
	.byte	1
	.byte	1
	.byte	1
	.byte	1
	.byte	1
	.byte	1
	.byte	1
	.byte	1
	.byte	1
	.byte	1
	.byte	1
	.byte	1
	.byte	1
	.byte	2
	.byte	2
	.byte	2
	.byte	2
	.byte	2
	.byte	2
	.byte	2
	.byte	2
	.byte	2
	.byte	3
	.byte	3
	.byte	3
	.byte	3
	.byte	3
	.byte	3
	.byte	3
	.byte	4
	.byte	4
	.byte	4
	.byte	4
	.byte	4
	.byte	4
	.byte	5
	.byte	5
	.byte	5
	.byte	6
	.byte	6
	.byte	7
	.byte	7
	.byte	8
	.byte	8
	.byte	9
	.byte	9
	.byte	10
	.byte	11
	.byte	12
	.byte	13
	.byte	13
	.byte	14
	.byte	15
	.byte	16
	.byte	18
	.byte	19
	.byte	22
	.byte	25
	.byte	28
	.byte	32
	.byte	36
	.byte	40
	.byte	44
	.byte	47
	.byte	51
	.byte	53
	.byte	56
	.byte	58
	.byte	60
	.byte	62
	.byte	64
	.byte	66
	.byte	67
	.byte	69
	.byte	71
	.byte	72
	.byte	74
	.byte	76
	.byte	77
	.byte	79
	.byte	81
	.byte	82
	.byte	84
	.byte	85
	.byte	85
	.byte	86
	.byte	86
	.byte	86
	.byte	87
	.byte	88
	.byte	88
	.byte	89
	.byte	90
	.byte	91
	.byte	91
	.byte	92
	.byte	93
	.byte	94
	.byte	95
	.byte	96
	.byte	97
	.byte	98
	.byte	99
	.byte	100
	.byte	100
	.section	.bss.m_bh1745_cfg,"aw",%nobits
	.align	2
	.type	m_bh1745_cfg, %object
	.size	m_bh1745_cfg, 12
m_bh1745_cfg:
	.space	12
	.section	.bss.m_data_handler,"aw",%nobits
	.align	2
	.type	m_data_handler, %object
	.size	m_data_handler, 4
m_data_handler:
	.space	4
	.section	.bss.m_running,"aw",%nobits
	.type	m_running, %object
	.size	m_running, 1
m_running:
	.space	1
	.section .rodata
	.align	2
.LC0:
	.ascii	"C:\\Research\\12_mesh_v101_demo\\Nordic-Thingy52-FW"
	.ascii	"\\source\\drivers\\drv_color.c\000"
	.section	.text.gpiote_evt_sceduled,"ax",%progbits
	.align	1
	.syntax unified
	.thumb
	.thumb_func
	.fpu fpv4-sp-d16
	.type	gpiote_evt_sceduled, %function
gpiote_evt_sceduled:
.LFB240:
	.file 2 "C:\\Research\\12_mesh_v101_demo\\Nordic-Thingy52-FW\\source\\drivers\\drv_color.c"
	.loc 2 52 1
	@ args = 0, pretend = 0, frame = 48
	@ frame_needed = 0, uses_anonymous_args = 0
	push	{lr}
.LCFI7:
	sub	sp, sp, #52
.LCFI8:
	str	r0, [sp, #4]
	mov	r3, r1
	strh	r3, [sp, #2]	@ movhi
	.loc 2 57 16
	ldr	r0, .L15
	bl	drv_bh1745_open
	str	r0, [sp, #44]
.LBB2:
	.loc 2 58 5
	ldr	r3, [sp, #44]
	str	r3, [sp, #40]
	ldr	r3, [sp, #40]
	cmp	r3, #0
	beq	.L8
	.loc 2 58 5 is_stmt 0 discriminator 1
	ldr	r2, .L15+4
	movs	r1, #58
	ldr	r0, [sp, #40]
	bl	app_error_handler
.L8:
.LBE2:
	.loc 2 60 16 is_stmt 1
	add	r3, sp, #15
	mov	r0, r3
	bl	drv_bh1745_int_get
	str	r0, [sp, #44]
.LBB3:
	.loc 2 61 5
	ldr	r3, [sp, #44]
	str	r3, [sp, #36]
	ldr	r3, [sp, #36]
	cmp	r3, #0
	beq	.L9
	.loc 2 61 5 is_stmt 0 discriminator 1
	ldr	r2, .L15+4
	movs	r1, #61
	ldr	r0, [sp, #36]
	bl	app_error_handler
.L9:
.LBE3:
	.loc 2 63 16 is_stmt 1
	add	r3, sp, #16
	mov	r0, r3
	bl	drv_bh1745_data_get
	str	r0, [sp, #44]
.LBB4:
	.loc 2 64 5
	ldr	r3, [sp, #44]
	str	r3, [sp, #32]
	ldr	r3, [sp, #32]
	cmp	r3, #0
	beq	.L10
	.loc 2 64 5 is_stmt 0 discriminator 1
	ldr	r2, .L15+4
	movs	r1, #64
	ldr	r0, [sp, #32]
	bl	app_error_handler
.L10:
.LBE4:
	.loc 2 66 5 is_stmt 1
	movs	r0, #31
	bl	nrf_drv_gpiote_in_event_disable
	.loc 2 68 16
	movs	r0, #0
	bl	drv_bh1745_meas_enable
	str	r0, [sp, #44]
.LBB5:
	.loc 2 69 5
	ldr	r3, [sp, #44]
	str	r3, [sp, #28]
	ldr	r3, [sp, #28]
	cmp	r3, #0
	beq	.L11
	.loc 2 69 5 is_stmt 0 discriminator 1
	ldr	r2, .L15+4
	movs	r1, #69
	ldr	r0, [sp, #28]
	bl	app_error_handler
.L11:
.LBE5:
	.loc 2 71 16 is_stmt 1
	bl	drv_bh1745_close
	str	r0, [sp, #44]
.LBB6:
	.loc 2 72 5
	ldr	r3, [sp, #44]
	str	r3, [sp, #24]
	ldr	r3, [sp, #24]
	cmp	r3, #0
	beq	.L12
	.loc 2 72 5 is_stmt 0 discriminator 1
	ldr	r2, .L15+4
	movs	r1, #72
	ldr	r0, [sp, #24]
	bl	app_error_handler
.L12:
.LBE6:
	.loc 2 74 9 is_stmt 1
	ldr	r3, .L15+8
	ldrb	r3, [r3]	@ zero_extendqisi2
	.loc 2 74 8
	cmp	r3, #0
	beq	.L14
	.loc 2 76 9
	ldr	r3, .L15+12
	ldr	r3, [r3]
	add	r2, sp, #16
	mov	r0, r2
	blx	r3
.LVL0:
.L14:
	.loc 2 78 1
	nop
	add	sp, sp, #52
.LCFI9:
	@ sp needed
	ldr	pc, [sp], #4
.L16:
	.align	2
.L15:
	.word	m_bh1745_cfg
	.word	.LC0
	.word	m_running
	.word	m_data_handler
.LFE240:
	.size	gpiote_evt_sceduled, .-gpiote_evt_sceduled
	.section .rodata
	.align	2
.LC1:
	.ascii	"\033[1;33mdrv_color     :WARNING:Err code returned "
	.ascii	"in file: %s, line: %d, code %d \015\012\000"
	.section	.text.chip_verify,"ax",%progbits
	.align	1
	.syntax unified
	.thumb
	.thumb_func
	.fpu fpv4-sp-d16
	.type	chip_verify, %function
chip_verify:
.LFB241:
	.loc 2 82 1
	@ args = 0, pretend = 0, frame = 8
	@ frame_needed = 0, uses_anonymous_args = 0
	push	{lr}
.LCFI10:
	sub	sp, sp, #20
.LCFI11:
	.loc 2 87 16
	ldr	r0, .L26
	bl	drv_bh1745_open
	str	r0, [sp, #12]
	.loc 2 88 5
	ldr	r3, [sp, #12]
	cmp	r3, #0
	beq	.L18
	.loc 2 88 5 is_stmt 0 discriminator 2
	ldr	r0, .L26+4
	bl	nrf_log_push
	mov	r2, r0
	ldr	r3, [sp, #12]
	str	r3, [sp]
	movs	r3, #88
	ldr	r1, .L26+8
	movs	r0, #2
	bl	nrf_log_frontend_std_3
	ldr	r3, [sp, #12]
	b	.L25
.L18:
	.loc 2 90 16 is_stmt 1
	add	r3, sp, #11
	mov	r0, r3
	bl	drv_bh1745_manu_id_get
	str	r0, [sp, #12]
	.loc 2 91 5
	ldr	r3, [sp, #12]
	cmp	r3, #0
	beq	.L20
	.loc 2 91 5 is_stmt 0 discriminator 2
	ldr	r0, .L26+4
	bl	nrf_log_push
	mov	r2, r0
	ldr	r3, [sp, #12]
	str	r3, [sp]
	movs	r3, #91
	ldr	r1, .L26+8
	movs	r0, #2
	bl	nrf_log_frontend_std_3
	ldr	r3, [sp, #12]
	b	.L25
.L20:
	.loc 2 93 16 is_stmt 1
	add	r3, sp, #10
	mov	r0, r3
	bl	drv_bh1745_part_id_get
	str	r0, [sp, #12]
	.loc 2 94 5
	ldr	r3, [sp, #12]
	cmp	r3, #0
	beq	.L21
	.loc 2 94 5 is_stmt 0 discriminator 2
	ldr	r0, .L26+4
	bl	nrf_log_push
	mov	r2, r0
	ldr	r3, [sp, #12]
	str	r3, [sp]
	movs	r3, #94
	ldr	r1, .L26+8
	movs	r0, #2
	bl	nrf_log_frontend_std_3
	ldr	r3, [sp, #12]
	b	.L25
.L21:
	.loc 2 96 16 is_stmt 1
	bl	drv_bh1745_close
	str	r0, [sp, #12]
	.loc 2 97 5
	ldr	r3, [sp, #12]
	cmp	r3, #0
	beq	.L22
	.loc 2 97 5 is_stmt 0 discriminator 2
	ldr	r0, .L26+4
	bl	nrf_log_push
	mov	r2, r0
	ldr	r3, [sp, #12]
	str	r3, [sp]
	movs	r3, #97
	ldr	r1, .L26+8
	movs	r0, #2
	bl	nrf_log_frontend_std_3
	ldr	r3, [sp, #12]
	b	.L25
.L22:
	.loc 2 99 23 is_stmt 1
	ldrb	r3, [sp, #11]	@ zero_extendqisi2
	.loc 2 99 69
	cmp	r3, #224
	bne	.L23
	.loc 2 99 44 discriminator 1
	ldrb	r3, [sp, #10]	@ zero_extendqisi2
	.loc 2 99 32 discriminator 1
	cmp	r3, #11
	bne	.L23
	.loc 2 99 69 discriminator 3
	movs	r3, #0
	b	.L25
.L23:
	.loc 2 99 69 is_stmt 0 discriminator 4
	movs	r3, #6
.L25:
	.loc 2 100 1 is_stmt 1 discriminator 1
	mov	r0, r3
	add	sp, sp, #20
.LCFI12:
	@ sp needed
	ldr	pc, [sp], #4
.L27:
	.align	2
.L26:
	.word	m_bh1745_cfg
	.word	.LC0
	.word	.LC1
.LFE241:
	.size	chip_verify, .-chip_verify
	.section	.text.gpiote_evt_handler,"ax",%progbits
	.align	1
	.syntax unified
	.thumb
	.thumb_func
	.fpu fpv4-sp-d16
	.type	gpiote_evt_handler, %function
gpiote_evt_handler:
.LFB242:
	.loc 2 104 1
	@ args = 0, pretend = 0, frame = 16
	@ frame_needed = 0, uses_anonymous_args = 0
	push	{lr}
.LCFI13:
	sub	sp, sp, #20
.LCFI14:
	str	r0, [sp, #4]
	mov	r3, r1
	strb	r3, [sp, #3]
	.loc 2 107 8
	ldr	r3, [sp, #4]
	cmp	r3, #31
	bne	.L30
	.loc 2 107 29 discriminator 1
	movs	r0, #31
	bl	nrf_gpio_pin_read
	mov	r3, r0
	.loc 2 107 25 discriminator 1
	cmp	r3, #0
	bne	.L30
	.loc 2 109 20
	ldr	r2, .L31
	movs	r1, #0
	movs	r0, #0
	bl	app_sched_event_put
	str	r0, [sp, #12]
.LBB7:
	.loc 2 110 9
	ldr	r3, [sp, #12]
	str	r3, [sp, #8]
	ldr	r3, [sp, #8]
	cmp	r3, #0
	beq	.L30
	.loc 2 110 9 is_stmt 0 discriminator 1
	ldr	r2, .L31+4
	movs	r1, #110
	ldr	r0, [sp, #8]
	bl	app_error_handler
.L30:
.LBE7:
	.loc 2 112 1 is_stmt 1
	nop
	add	sp, sp, #20
.LCFI15:
	@ sp needed
	ldr	pc, [sp], #4
.L32:
	.align	2
.L31:
	.word	gpiote_evt_sceduled
	.word	.LC0
.LFE242:
	.size	gpiote_evt_handler, .-gpiote_evt_handler
	.section	.text.gpiote_init,"ax",%progbits
	.align	1
	.syntax unified
	.thumb
	.thumb_func
	.fpu fpv4-sp-d16
	.type	gpiote_init, %function
gpiote_init:
.LFB243:
	.loc 2 116 1
	@ args = 0, pretend = 0, frame = 16
	@ frame_needed = 0, uses_anonymous_args = 0
	push	{lr}
.LCFI16:
	sub	sp, sp, #28
.LCFI17:
	str	r0, [sp, #12]
	.loc 2 120 10
	bl	nrf_drv_gpiote_is_init
	mov	r3, r0
	.loc 2 120 9
	eor	r3, r3, #1
	uxtb	r3, r3
	.loc 2 120 8
	cmp	r3, #0
	beq	.L34
	.loc 2 122 20
	bl	nrf_drv_gpiote_init
	str	r0, [sp, #20]
	.loc 2 123 9
	ldr	r3, [sp, #20]
	cmp	r3, #0
	beq	.L34
	.loc 2 123 9 is_stmt 0 discriminator 2
	ldr	r0, .L38
	bl	nrf_log_push
	mov	r2, r0
	ldr	r3, [sp, #20]
	str	r3, [sp]
	movs	r3, #123
	ldr	r1, .L38+4
	movs	r0, #2
	bl	nrf_log_frontend_std_3
	ldr	r3, [sp, #20]
	b	.L37
.L34:
	.loc 2 127 34 is_stmt 1
	movs	r3, #0
	strb	r3, [sp, #18]
	.loc 2 128 34
	movs	r3, #0
	strb	r3, [sp, #19]
	.loc 2 129 34
	movs	r3, #3
	strb	r3, [sp, #17]
	.loc 2 130 34
	movs	r3, #3
	strb	r3, [sp, #16]
	.loc 2 131 16
	add	r3, sp, #16
	ldr	r2, .L38+8
	mov	r1, r3
	ldr	r0, [sp, #12]
	bl	nrf_drv_gpiote_in_init
	str	r0, [sp, #20]
	.loc 2 132 5
	ldr	r3, [sp, #20]
	cmp	r3, #0
	beq	.L36
	.loc 2 132 5 is_stmt 0 discriminator 2
	ldr	r0, .L38
	bl	nrf_log_push
	mov	r2, r0
	ldr	r3, [sp, #20]
	str	r3, [sp]
	movs	r3, #132
	ldr	r1, .L38+4
	movs	r0, #2
	bl	nrf_log_frontend_std_3
	ldr	r3, [sp, #20]
	b	.L37
.L36:
	.loc 2 134 12 is_stmt 1
	movs	r3, #0
.L37:
	.loc 2 135 1 discriminator 1
	mov	r0, r3
	add	sp, sp, #28
.LCFI18:
	@ sp needed
	ldr	pc, [sp], #4
.L39:
	.align	2
.L38:
	.word	.LC0
	.word	.LC1
	.word	gpiote_evt_handler
.LFE243:
	.size	gpiote_init, .-gpiote_init
	.section	.text.gpiote_uninit,"ax",%progbits
	.align	1
	.syntax unified
	.thumb
	.thumb_func
	.fpu fpv4-sp-d16
	.type	gpiote_uninit, %function
gpiote_uninit:
.LFB244:
	.loc 2 139 1
	@ args = 0, pretend = 0, frame = 8
	@ frame_needed = 0, uses_anonymous_args = 0
	push	{lr}
.LCFI19:
	sub	sp, sp, #12
.LCFI20:
	str	r0, [sp, #4]
	.loc 2 140 5
	ldr	r0, [sp, #4]
	bl	nrf_drv_gpiote_in_uninit
	.loc 2 141 1
	nop
	add	sp, sp, #12
.LCFI21:
	@ sp needed
	ldr	pc, [sp], #4
.LFE244:
	.size	gpiote_uninit, .-gpiote_uninit
	.section	.text.drv_color_init,"ax",%progbits
	.align	1
	.global	drv_color_init
	.syntax unified
	.thumb
	.thumb_func
	.fpu fpv4-sp-d16
	.type	drv_color_init, %function
drv_color_init:
.LFB245:
	.loc 2 145 1
	@ args = 0, pretend = 0, frame = 16
	@ frame_needed = 0, uses_anonymous_args = 0
	push	{lr}
.LCFI22:
	sub	sp, sp, #28
.LCFI23:
	str	r0, [sp, #12]
	.loc 2 148 5
	ldr	r3, [sp, #12]
	cmp	r3, #0
	bne	.L42
	.loc 2 148 5 is_stmt 0 discriminator 1
	movs	r3, #14
	b	.L43
.L42:
	.loc 2 149 5 is_stmt 1
	ldr	r3, [sp, #12]
	ldr	r3, [r3, #12]
	cmp	r3, #0
	bne	.L44
	.loc 2 149 5 is_stmt 0 discriminator 1
	movs	r3, #14
	b	.L43
.L44:
	.loc 2 150 5 is_stmt 1
	ldr	r3, [sp, #12]
	ldr	r3, [r3, #4]
	cmp	r3, #0
	bne	.L45
	.loc 2 150 5 is_stmt 0 discriminator 1
	movs	r3, #14
	b	.L43
.L45:
	.loc 2 151 5 is_stmt 1
	ldr	r3, [sp, #12]
	ldr	r3, [r3]
	cmp	r3, #0
	bne	.L46
	.loc 2 151 5 is_stmt 0 discriminator 1
	movs	r3, #14
	b	.L43
.L46:
	.loc 2 153 41 is_stmt 1
	ldr	r3, [sp, #12]
	ldr	r3, [r3]
	.loc 2 153 33
	ldr	r2, .L52
	str	r3, [r2, #4]
	.loc 2 154 41
	ldr	r3, [sp, #12]
	ldr	r3, [r3, #4]
	.loc 2 154 33
	ldr	r2, .L52
	str	r3, [r2, #8]
	.loc 2 155 41
	ldr	r3, [sp, #12]
	ldrb	r2, [r3, #8]	@ zero_extendqisi2
	.loc 2 155 33
	ldr	r3, .L52
	strb	r2, [r3]
	.loc 2 156 41
	ldr	r3, [sp, #12]
	ldr	r3, [r3, #12]
	.loc 2 156 33
	ldr	r2, .L52+4
	str	r3, [r2]
	.loc 2 158 16
	bl	drv_bh1745_init
	str	r0, [sp, #20]
	.loc 2 159 5
	ldr	r3, [sp, #20]
	cmp	r3, #0
	beq	.L47
	.loc 2 159 5 is_stmt 0 discriminator 2
	ldr	r0, .L52+8
	bl	nrf_log_push
	mov	r2, r0
	ldr	r3, [sp, #20]
	str	r3, [sp]
	movs	r3, #159
	ldr	r1, .L52+12
	movs	r0, #2
	bl	nrf_log_frontend_std_3
	ldr	r3, [sp, #20]
	b	.L43
.L47:
	.loc 2 161 16 is_stmt 1
	ldr	r0, .L52
	bl	drv_bh1745_open
	str	r0, [sp, #20]
	.loc 2 162 5
	ldr	r3, [sp, #20]
	cmp	r3, #0
	beq	.L48
	.loc 2 162 5 is_stmt 0 discriminator 2
	ldr	r0, .L52+8
	bl	nrf_log_push
	mov	r2, r0
	ldr	r3, [sp, #20]
	str	r3, [sp]
	movs	r3, #162
	ldr	r1, .L52+12
	movs	r0, #2
	bl	nrf_log_frontend_std_3
	ldr	r3, [sp, #20]
	b	.L43
.L48:
	.loc 2 164 16 is_stmt 1
	bl	drv_bh1745_sw_reset
	str	r0, [sp, #20]
	.loc 2 165 5
	ldr	r3, [sp, #20]
	cmp	r3, #0
	beq	.L49
	.loc 2 165 5 is_stmt 0 discriminator 2
	ldr	r0, .L52+8
	bl	nrf_log_push
	mov	r2, r0
	ldr	r3, [sp, #20]
	str	r3, [sp]
	movs	r3, #165
	ldr	r1, .L52+12
	movs	r0, #2
	bl	nrf_log_frontend_std_3
	ldr	r3, [sp, #20]
	b	.L43
.L49:
	.loc 2 167 16 is_stmt 1
	bl	drv_bh1745_close
	str	r0, [sp, #20]
	.loc 2 168 5
	ldr	r3, [sp, #20]
	cmp	r3, #0
	beq	.L50
	.loc 2 168 5 is_stmt 0 discriminator 2
	ldr	r0, .L52+8
	bl	nrf_log_push
	mov	r2, r0
	ldr	r3, [sp, #20]
	str	r3, [sp]
	movs	r3, #168
	ldr	r1, .L52+12
	movs	r0, #2
	bl	nrf_log_frontend_std_3
	ldr	r3, [sp, #20]
	b	.L43
.L50:
	.loc 2 170 16 is_stmt 1
	bl	chip_verify
	str	r0, [sp, #20]
	.loc 2 171 5
	ldr	r3, [sp, #20]
	cmp	r3, #0
	beq	.L51
	.loc 2 171 5 is_stmt 0 discriminator 2
	ldr	r0, .L52+8
	bl	nrf_log_push
	mov	r2, r0
	ldr	r3, [sp, #20]
	str	r3, [sp]
	movs	r3, #171
	ldr	r1, .L52+12
	movs	r0, #2
	bl	nrf_log_frontend_std_3
	ldr	r3, [sp, #20]
	b	.L43
.L51:
	.loc 2 173 11 is_stmt 1
	movs	r0, #0
	bl	drv_bh1745_meas_enable
	.loc 2 175 12
	movs	r3, #0
.L43:
	.loc 2 176 1
	mov	r0, r3
	add	sp, sp, #28
.LCFI24:
	@ sp needed
	ldr	pc, [sp], #4
.L53:
	.align	2
.L52:
	.word	m_bh1745_cfg
	.word	m_data_handler
	.word	.LC0
	.word	.LC1
.LFE245:
	.size	drv_color_init, .-drv_color_init
	.section	.text.drv_color_sample,"ax",%progbits
	.align	1
	.global	drv_color_sample
	.syntax unified
	.thumb
	.thumb_func
	.fpu fpv4-sp-d16
	.type	drv_color_sample, %function
drv_color_sample:
.LFB246:
	.loc 2 180 1
	@ args = 0, pretend = 0, frame = 8
	@ frame_needed = 0, uses_anonymous_args = 0
	push	{lr}
.LCFI25:
	sub	sp, sp, #20
.LCFI26:
	.loc 2 184 5
	movs	r1, #1
	movs	r0, #31
	bl	nrf_drv_gpiote_in_event_enable
	.loc 2 186 16
	ldr	r0, .L61
	bl	drv_bh1745_open
	str	r0, [sp, #12]
	.loc 2 187 5
	ldr	r3, [sp, #12]
	cmp	r3, #0
	beq	.L55
	.loc 2 187 5 is_stmt 0 discriminator 2
	ldr	r0, .L61+4
	bl	nrf_log_push
	mov	r2, r0
	ldr	r3, [sp, #12]
	str	r3, [sp]
	movs	r3, #187
	ldr	r1, .L61+8
	movs	r0, #2
	bl	nrf_log_frontend_std_3
	ldr	r3, [sp, #12]
	b	.L60
.L55:
	.loc 2 189 16 is_stmt 1
	movs	r0, #1
	bl	drv_bh1745_meas_enable
	str	r0, [sp, #12]
	.loc 2 190 5
	ldr	r3, [sp, #12]
	cmp	r3, #0
	beq	.L57
	.loc 2 190 5 is_stmt 0 discriminator 2
	ldr	r0, .L61+4
	bl	nrf_log_push
	mov	r2, r0
	ldr	r3, [sp, #12]
	str	r3, [sp]
	movs	r3, #190
	ldr	r1, .L61+8
	movs	r0, #2
	bl	nrf_log_frontend_std_3
	ldr	r3, [sp, #12]
	b	.L60
.L57:
	.loc 2 192 16 is_stmt 1
	add	r3, sp, #11
	mov	r0, r3
	bl	drv_bh1745_int_get
	str	r0, [sp, #12]
	.loc 2 193 5
	ldr	r3, [sp, #12]
	cmp	r3, #0
	beq	.L58
	.loc 2 193 5 is_stmt 0 discriminator 2
	ldr	r0, .L61+4
	bl	nrf_log_push
	mov	r2, r0
	ldr	r3, [sp, #12]
	str	r3, [sp]
	movs	r3, #193
	ldr	r1, .L61+8
	movs	r0, #2
	bl	nrf_log_frontend_std_3
	ldr	r3, [sp, #12]
	b	.L60
.L58:
	.loc 2 195 16 is_stmt 1
	bl	drv_bh1745_close
	str	r0, [sp, #12]
	.loc 2 196 5
	ldr	r3, [sp, #12]
	cmp	r3, #0
	beq	.L59
	.loc 2 196 5 is_stmt 0 discriminator 2
	ldr	r0, .L61+4
	bl	nrf_log_push
	mov	r2, r0
	ldr	r3, [sp, #12]
	str	r3, [sp]
	movs	r3, #196
	ldr	r1, .L61+8
	movs	r0, #2
	bl	nrf_log_frontend_std_3
	ldr	r3, [sp, #12]
	b	.L60
.L59:
	.loc 2 198 12 is_stmt 1
	movs	r3, #0
.L60:
	.loc 2 199 1 discriminator 1
	mov	r0, r3
	add	sp, sp, #20
.LCFI27:
	@ sp needed
	ldr	pc, [sp], #4
.L62:
	.align	2
.L61:
	.word	m_bh1745_cfg
	.word	.LC0
	.word	.LC1
.LFE246:
	.size	drv_color_sample, .-drv_color_sample
	.section	.text.drv_color_start,"ax",%progbits
	.align	1
	.global	drv_color_start
	.syntax unified
	.thumb
	.thumb_func
	.fpu fpv4-sp-d16
	.type	drv_color_start, %function
drv_color_start:
.LFB247:
	.loc 2 203 1
	@ args = 0, pretend = 0, frame = 8
	@ frame_needed = 0, uses_anonymous_args = 0
	push	{lr}
.LCFI28:
	sub	sp, sp, #20
.LCFI29:
	.loc 2 207 9
	ldr	r3, .L76
	ldrb	r3, [r3]	@ zero_extendqisi2
	.loc 2 207 8
	cmp	r3, #0
	beq	.L64
	.loc 2 209 16
	movs	r3, #0
	b	.L75
.L64:
	.loc 2 213 19
	ldr	r3, .L76
	movs	r2, #1
	strb	r2, [r3]
	.loc 2 216 16
	ldr	r0, .L76+4
	bl	drv_bh1745_open
	str	r0, [sp, #12]
	.loc 2 217 5
	ldr	r3, [sp, #12]
	cmp	r3, #0
	beq	.L66
	.loc 2 217 5 is_stmt 0 discriminator 2
	ldr	r0, .L76+8
	bl	nrf_log_push
	mov	r2, r0
	ldr	r3, [sp, #12]
	str	r3, [sp]
	movs	r3, #217
	ldr	r1, .L76+12
	movs	r0, #2
	bl	nrf_log_frontend_std_3
	ldr	r3, [sp, #12]
	b	.L75
.L66:
	.loc 2 219 16 is_stmt 1
	add	r3, sp, #11
	mov	r0, r3
	bl	drv_bh1745_persistance_get
	str	r0, [sp, #12]
	.loc 2 220 5
	ldr	r3, [sp, #12]
	cmp	r3, #0
	beq	.L67
	.loc 2 220 5 is_stmt 0 discriminator 2
	ldr	r0, .L76+8
	bl	nrf_log_push
	mov	r2, r0
	ldr	r3, [sp, #12]
	str	r3, [sp]
	movs	r3, #220
	ldr	r1, .L76+12
	movs	r0, #2
	bl	nrf_log_frontend_std_3
	ldr	r3, [sp, #12]
	b	.L75
.L67:
	.loc 2 222 17 is_stmt 1
	ldrb	r3, [sp, #11]	@ zero_extendqisi2
	bic	r3, r3, #3
	uxtb	r3, r3
	strb	r3, [sp, #11]
	.loc 2 224 16
	ldrb	r3, [sp, #11]	@ zero_extendqisi2
	mov	r0, r3
	bl	drv_bh1745_persistance_set
	str	r0, [sp, #12]
	.loc 2 225 5
	ldr	r3, [sp, #12]
	cmp	r3, #0
	beq	.L68
	.loc 2 225 5 is_stmt 0 discriminator 2
	ldr	r0, .L76+8
	bl	nrf_log_push
	mov	r2, r0
	ldr	r3, [sp, #12]
	str	r3, [sp]
	movs	r3, #225
	ldr	r1, .L76+12
	movs	r0, #2
	bl	nrf_log_frontend_std_3
	ldr	r3, [sp, #12]
	b	.L75
.L68:
	.loc 2 227 16 is_stmt 1
	movs	r0, #29
	bl	drv_bh1745_int_set
	str	r0, [sp, #12]
	.loc 2 228 5
	ldr	r3, [sp, #12]
	cmp	r3, #0
	beq	.L69
	.loc 2 228 5 is_stmt 0 discriminator 2
	ldr	r0, .L76+8
	bl	nrf_log_push
	mov	r2, r0
	ldr	r3, [sp, #12]
	str	r3, [sp]
	movs	r3, #228
	ldr	r1, .L76+12
	movs	r0, #2
	bl	nrf_log_frontend_std_3
	ldr	r3, [sp, #12]
	b	.L75
.L69:
	.loc 2 230 16 is_stmt 1
	movs	r0, #0
	bl	drv_bh1745_meas_time_set
	str	r0, [sp, #12]
	.loc 2 231 5
	ldr	r3, [sp, #12]
	cmp	r3, #0
	beq	.L70
	.loc 2 231 5 is_stmt 0 discriminator 2
	ldr	r0, .L76+8
	bl	nrf_log_push
	mov	r2, r0
	ldr	r3, [sp, #12]
	str	r3, [sp]
	movs	r3, #231
	ldr	r1, .L76+12
	movs	r0, #2
	bl	nrf_log_frontend_std_3
	ldr	r3, [sp, #12]
	b	.L75
.L70:
	.loc 2 233 16 is_stmt 1
	movs	r0, #2
	bl	drv_bh1745_gain_set
	str	r0, [sp, #12]
	.loc 2 234 5
	ldr	r3, [sp, #12]
	cmp	r3, #0
	beq	.L71
	.loc 2 234 5 is_stmt 0 discriminator 2
	ldr	r0, .L76+8
	bl	nrf_log_push
	mov	r2, r0
	ldr	r3, [sp, #12]
	str	r3, [sp]
	movs	r3, #234
	ldr	r1, .L76+12
	movs	r0, #2
	bl	nrf_log_frontend_std_3
	ldr	r3, [sp, #12]
	b	.L75
.L71:
	.loc 2 236 16 is_stmt 1
	movs	r0, #0
	bl	drv_bh1745_meas_enable
	str	r0, [sp, #12]
	.loc 2 237 5
	ldr	r3, [sp, #12]
	cmp	r3, #0
	beq	.L72
	.loc 2 237 5 is_stmt 0 discriminator 2
	ldr	r0, .L76+8
	bl	nrf_log_push
	mov	r2, r0
	ldr	r3, [sp, #12]
	str	r3, [sp]
	movs	r3, #237
	ldr	r1, .L76+12
	movs	r0, #2
	bl	nrf_log_frontend_std_3
	ldr	r3, [sp, #12]
	b	.L75
.L72:
	.loc 2 239 16 is_stmt 1
	bl	drv_bh1745_close
	str	r0, [sp, #12]
	.loc 2 240 5
	ldr	r3, [sp, #12]
	cmp	r3, #0
	beq	.L73
	.loc 2 240 5 is_stmt 0 discriminator 2
	ldr	r0, .L76+8
	bl	nrf_log_push
	mov	r2, r0
	ldr	r3, [sp, #12]
	str	r3, [sp]
	movs	r3, #240
	ldr	r1, .L76+12
	movs	r0, #2
	bl	nrf_log_frontend_std_3
	ldr	r3, [sp, #12]
	b	.L75
.L73:
	.loc 2 242 16 is_stmt 1
	movs	r0, #31
	bl	gpiote_init
	str	r0, [sp, #12]
	.loc 2 243 5
	ldr	r3, [sp, #12]
	cmp	r3, #0
	beq	.L74
	.loc 2 243 5 is_stmt 0 discriminator 2
	ldr	r0, .L76+8
	bl	nrf_log_push
	mov	r2, r0
	ldr	r3, [sp, #12]
	str	r3, [sp]
	movs	r3, #243
	ldr	r1, .L76+12
	movs	r0, #2
	bl	nrf_log_frontend_std_3
	ldr	r3, [sp, #12]
	b	.L75
.L74:
	.loc 2 245 12 is_stmt 1
	movs	r3, #0
.L75:
	.loc 2 246 1 discriminator 1
	mov	r0, r3
	add	sp, sp, #20
.LCFI30:
	@ sp needed
	ldr	pc, [sp], #4
.L77:
	.align	2
.L76:
	.word	m_running
	.word	m_bh1745_cfg
	.word	.LC0
	.word	.LC1
.LFE247:
	.size	drv_color_start, .-drv_color_start
	.section	.text.drv_color_stop,"ax",%progbits
	.align	1
	.global	drv_color_stop
	.syntax unified
	.thumb
	.thumb_func
	.fpu fpv4-sp-d16
	.type	drv_color_stop, %function
drv_color_stop:
.LFB248:
	.loc 2 250 1
	@ args = 0, pretend = 0, frame = 8
	@ frame_needed = 0, uses_anonymous_args = 0
	push	{lr}
.LCFI31:
	sub	sp, sp, #20
.LCFI32:
	.loc 2 253 19
	ldr	r3, .L84
	ldrb	r3, [r3]	@ zero_extendqisi2
	eor	r3, r3, #1
	uxtb	r3, r3
	.loc 2 253 8
	cmp	r3, #0
	beq	.L79
	.loc 2 255 16
	movs	r3, #0
	b	.L80
.L79:
	.loc 2 259 19
	ldr	r3, .L84
	movs	r2, #0
	strb	r2, [r3]
	.loc 2 262 5
	movs	r0, #31
	bl	nrf_drv_gpiote_in_event_disable
	.loc 2 263 5
	movs	r0, #31
	bl	gpiote_uninit
	.loc 2 265 16
	ldr	r0, .L84+4
	bl	drv_bh1745_open
	str	r0, [sp, #12]
	.loc 2 266 5
	ldr	r3, [sp, #12]
	cmp	r3, #0
	beq	.L81
	.loc 2 266 5 is_stmt 0 discriminator 2
	ldr	r0, .L84+8
	bl	nrf_log_push
	mov	r2, r0
	ldr	r3, [sp, #12]
	str	r3, [sp]
	mov	r3, #266
	ldr	r1, .L84+12
	movs	r0, #2
	bl	nrf_log_frontend_std_3
	ldr	r3, [sp, #12]
	b	.L80
.L81:
	.loc 2 268 16 is_stmt 1
	bl	drv_bh1745_sw_reset
	str	r0, [sp, #12]
	.loc 2 269 5
	ldr	r3, [sp, #12]
	cmp	r3, #0
	beq	.L82
	.loc 2 269 5 is_stmt 0 discriminator 2
	ldr	r0, .L84+8
	bl	nrf_log_push
	mov	r2, r0
	ldr	r3, [sp, #12]
	str	r3, [sp]
	movw	r3, #269
	ldr	r1, .L84+12
	movs	r0, #2
	bl	nrf_log_frontend_std_3
	ldr	r3, [sp, #12]
	b	.L80
.L82:
	.loc 2 271 16 is_stmt 1
	movs	r0, #0
	bl	drv_bh1745_meas_enable
	str	r0, [sp, #12]
	.loc 2 272 5
	ldr	r3, [sp, #12]
	cmp	r3, #0
	beq	.L83
	.loc 2 272 5 is_stmt 0 discriminator 2
	ldr	r0, .L84+8
	bl	nrf_log_push
	mov	r2, r0
	ldr	r3, [sp, #12]
	str	r3, [sp]
	mov	r3, #272
	ldr	r1, .L84+12
	movs	r0, #2
	bl	nrf_log_frontend_std_3
	ldr	r3, [sp, #12]
	b	.L80
.L83:
	.loc 2 274 12 is_stmt 1
	bl	drv_bh1745_close
	mov	r3, r0
.L80:
	.loc 2 275 1
	mov	r0, r3
	add	sp, sp, #20
.LCFI33:
	@ sp needed
	ldr	pc, [sp], #4
.L85:
	.align	2
.L84:
	.word	m_running
	.word	m_bh1745_cfg
	.word	.LC0
	.word	.LC1
.LFE248:
	.size	drv_color_stop, .-drv_color_stop
	.section	.debug_frame,"",%progbits
.Lframe0:
	.4byte	.LECIE0-.LSCIE0
.LSCIE0:
	.4byte	0xffffffff
	.byte	0x3
	.ascii	"\000"
	.uleb128 0x1
	.sleb128 -4
	.uleb128 0xe
	.byte	0xc
	.uleb128 0xd
	.uleb128 0
	.align	2
.LECIE0:
.LSFDE0:
	.4byte	.LEFDE0-.LASFDE0
.LASFDE0:
	.4byte	.Lframe0
	.4byte	.LFB168
	.4byte	.LFE168-.LFB168
	.byte	0x4
	.4byte	.LCFI0-.LFB168
	.byte	0xe
	.uleb128 0x8
	.byte	0x4
	.4byte	.LCFI1-.LCFI0
	.byte	0xe
	.uleb128 0
	.align	2
.LEFDE0:
.LSFDE2:
	.4byte	.LEFDE2-.LASFDE2
.LASFDE2:
	.4byte	.Lframe0
	.4byte	.LFB184
	.4byte	.LFE184-.LFB184
	.byte	0x4
	.4byte	.LCFI2-.LFB184
	.byte	0xe
	.uleb128 0x4
	.byte	0x8e
	.uleb128 0x1
	.byte	0x4
	.4byte	.LCFI3-.LCFI2
	.byte	0xe
	.uleb128 0x18
	.byte	0x4
	.4byte	.LCFI4-.LCFI3
	.byte	0xe
	.uleb128 0x4
	.align	2
.LEFDE2:
.LSFDE4:
	.4byte	.LEFDE4-.LASFDE4
.LASFDE4:
	.4byte	.Lframe0
	.4byte	.LFB191
	.4byte	.LFE191-.LFB191
	.byte	0x4
	.4byte	.LCFI5-.LFB191
	.byte	0xe
	.uleb128 0x8
	.byte	0x4
	.4byte	.LCFI6-.LCFI5
	.byte	0xe
	.uleb128 0
	.align	2
.LEFDE4:
.LSFDE6:
	.4byte	.LEFDE6-.LASFDE6
.LASFDE6:
	.4byte	.Lframe0
	.4byte	.LFB240
	.4byte	.LFE240-.LFB240
	.byte	0x4
	.4byte	.LCFI7-.LFB240
	.byte	0xe
	.uleb128 0x4
	.byte	0x8e
	.uleb128 0x1
	.byte	0x4
	.4byte	.LCFI8-.LCFI7
	.byte	0xe
	.uleb128 0x38
	.byte	0x4
	.4byte	.LCFI9-.LCFI8
	.byte	0xe
	.uleb128 0x4
	.align	2
.LEFDE6:
.LSFDE8:
	.4byte	.LEFDE8-.LASFDE8
.LASFDE8:
	.4byte	.Lframe0
	.4byte	.LFB241
	.4byte	.LFE241-.LFB241
	.byte	0x4
	.4byte	.LCFI10-.LFB241
	.byte	0xe
	.uleb128 0x4
	.byte	0x8e
	.uleb128 0x1
	.byte	0x4
	.4byte	.LCFI11-.LCFI10
	.byte	0xe
	.uleb128 0x18
	.byte	0x4
	.4byte	.LCFI12-.LCFI11
	.byte	0xe
	.uleb128 0x4
	.align	2
.LEFDE8:
.LSFDE10:
	.4byte	.LEFDE10-.LASFDE10
.LASFDE10:
	.4byte	.Lframe0
	.4byte	.LFB242
	.4byte	.LFE242-.LFB242
	.byte	0x4
	.4byte	.LCFI13-.LFB242
	.byte	0xe
	.uleb128 0x4
	.byte	0x8e
	.uleb128 0x1
	.byte	0x4
	.4byte	.LCFI14-.LCFI13
	.byte	0xe
	.uleb128 0x18
	.byte	0x4
	.4byte	.LCFI15-.LCFI14
	.byte	0xe
	.uleb128 0x4
	.align	2
.LEFDE10:
.LSFDE12:
	.4byte	.LEFDE12-.LASFDE12
.LASFDE12:
	.4byte	.Lframe0
	.4byte	.LFB243
	.4byte	.LFE243-.LFB243
	.byte	0x4
	.4byte	.LCFI16-.LFB243
	.byte	0xe
	.uleb128 0x4
	.byte	0x8e
	.uleb128 0x1
	.byte	0x4
	.4byte	.LCFI17-.LCFI16
	.byte	0xe
	.uleb128 0x20
	.byte	0x4
	.4byte	.LCFI18-.LCFI17
	.byte	0xe
	.uleb128 0x4
	.align	2
.LEFDE12:
.LSFDE14:
	.4byte	.LEFDE14-.LASFDE14
.LASFDE14:
	.4byte	.Lframe0
	.4byte	.LFB244
	.4byte	.LFE244-.LFB244
	.byte	0x4
	.4byte	.LCFI19-.LFB244
	.byte	0xe
	.uleb128 0x4
	.byte	0x8e
	.uleb128 0x1
	.byte	0x4
	.4byte	.LCFI20-.LCFI19
	.byte	0xe
	.uleb128 0x10
	.byte	0x4
	.4byte	.LCFI21-.LCFI20
	.byte	0xe
	.uleb128 0x4
	.align	2
.LEFDE14:
.LSFDE16:
	.4byte	.LEFDE16-.LASFDE16
.LASFDE16:
	.4byte	.Lframe0
	.4byte	.LFB245
	.4byte	.LFE245-.LFB245
	.byte	0x4
	.4byte	.LCFI22-.LFB245
	.byte	0xe
	.uleb128 0x4
	.byte	0x8e
	.uleb128 0x1
	.byte	0x4
	.4byte	.LCFI23-.LCFI22
	.byte	0xe
	.uleb128 0x20
	.byte	0x4
	.4byte	.LCFI24-.LCFI23
	.byte	0xe
	.uleb128 0x4
	.align	2
.LEFDE16:
.LSFDE18:
	.4byte	.LEFDE18-.LASFDE18
.LASFDE18:
	.4byte	.Lframe0
	.4byte	.LFB246
	.4byte	.LFE246-.LFB246
	.byte	0x4
	.4byte	.LCFI25-.LFB246
	.byte	0xe
	.uleb128 0x4
	.byte	0x8e
	.uleb128 0x1
	.byte	0x4
	.4byte	.LCFI26-.LCFI25
	.byte	0xe
	.uleb128 0x18
	.byte	0x4
	.4byte	.LCFI27-.LCFI26
	.byte	0xe
	.uleb128 0x4
	.align	2
.LEFDE18:
.LSFDE20:
	.4byte	.LEFDE20-.LASFDE20
.LASFDE20:
	.4byte	.Lframe0
	.4byte	.LFB247
	.4byte	.LFE247-.LFB247
	.byte	0x4
	.4byte	.LCFI28-.LFB247
	.byte	0xe
	.uleb128 0x4
	.byte	0x8e
	.uleb128 0x1
	.byte	0x4
	.4byte	.LCFI29-.LCFI28
	.byte	0xe
	.uleb128 0x18
	.byte	0x4
	.4byte	.LCFI30-.LCFI29
	.byte	0xe
	.uleb128 0x4
	.align	2
.LEFDE20:
.LSFDE22:
	.4byte	.LEFDE22-.LASFDE22
.LASFDE22:
	.4byte	.Lframe0
	.4byte	.LFB248
	.4byte	.LFE248-.LFB248
	.byte	0x4
	.4byte	.LCFI31-.LFB248
	.byte	0xe
	.uleb128 0x4
	.byte	0x8e
	.uleb128 0x1
	.byte	0x4
	.4byte	.LCFI32-.LCFI31
	.byte	0xe
	.uleb128 0x18
	.byte	0x4
	.4byte	.LCFI33-.LCFI32
	.byte	0xe
	.uleb128 0x4
	.align	2
.LEFDE22:
	.text
.Letext0:
	.file 3 "C:/Program Files/SEGGER/SEGGER Embedded Studio for ARM 4.30c/include/stdint.h"
	.file 4 "C:/Program Files/SEGGER/SEGGER Embedded Studio for ARM 4.30c/include/__crossworks.h"
	.file 5 "C:/Users/IIoTUser/AppData/Local/SEGGER/SEGGER Embedded Studio/v3/packages/CMSIS_4/CMSIS/Include/core_cm4.h"
	.file 6 "../../../sdk_components/toolchain/system_nrf52.h"
	.file 7 "../../../sdk_components/device/nrf52.h"
	.file 8 "../../../sdk_components/drivers_nrf/hal/nrf_twi.h"
	.file 9 "../../../sdk_components/drivers_nrf/twi_master/nrf_drv_twi.h"
	.file 10 "../../../include/drivers/drv_bh1745.h"
	.file 11 "../../../include/drivers/drv_color.h"
	.file 12 "C:/Program Files/SEGGER/SEGGER Embedded Studio for ARM 4.30c/include/stdio.h"
	.file 13 "../../../sdk_components/libraries/util/app_util.h"
	.file 14 "../../../sdk_components/libraries/timer/app_timer.h"
	.file 15 "../../../include/drivers/drv_ext_light.h"
	.file 16 "../../../include/board/pca20020.h"
	.file 17 "../../../sdk_components/drivers_nrf/hal/nrf_gpiote.h"
	.file 18 "../../../sdk_components/drivers_nrf/gpiote/nrf_drv_gpiote.h"