	.cpu cortex-m4
	.eabi_attribute 27, 1
	.eabi_attribute 28, 1
	.eabi_attribute 20, 1
	.eabi_attribute 21, 1
	.eabi_attribute 23, 3
	.eabi_attribute 24, 1
	.eabi_attribute 25, 1
	.eabi_attribute 26, 1
	.eabi_attribute 30, 6
	.eabi_attribute 34, 1
	.eabi_attribute 18, 4
	.file	"drv_ccs811.c"
	.text
.Ltext0:
	.section	.text.sd_mutex_new,"ax",%progbits
	.align	1
	.syntax unified
	.thumb
	.thumb_func
	.fpu fpv4-sp-d16
	.type	sd_mutex_new, %function
sd_mutex_new:
.LFB150:
	.file 1 "../../../sdk_components/softdevice/s132/headers/nrf_soc.h"
	.loc 1 387 1
	@ Naked Function: prologue and epilogue provided by programmer.
	@ args = 0, pretend = 0, frame = 0
	@ frame_needed = 0, uses_anonymous_args = 0
	.loc 1 387 1
	.syntax unified
@ 387 "../../../sdk_components/softdevice/s132/headers/nrf_soc.h" 1
	svc #43
bx r14
@ 0 "" 2
	.thumb
	.syntax unified
	nop
	mov	r0, r3
.LFE150:
	.size	sd_mutex_new, .-sd_mutex_new
	.section	.text.sd_mutex_acquire,"ax",%progbits
	.align	1
	.syntax unified
	.thumb
	.thumb_func
	.fpu fpv4-sp-d16
	.type	sd_mutex_acquire, %function
sd_mutex_acquire:
.LFB151:
	.loc 1 396 1
	@ Naked Function: prologue and epilogue provided by programmer.
	@ args = 0, pretend = 0, frame = 0
	@ frame_needed = 0, uses_anonymous_args = 0
	.loc 1 396 1
	.syntax unified
@ 396 "../../../sdk_components/softdevice/s132/headers/nrf_soc.h" 1
	svc #44
bx r14
@ 0 "" 2
	.thumb
	.syntax unified
	nop
	mov	r0, r3
.LFE151:
	.size	sd_mutex_acquire, .-sd_mutex_acquire
	.section	.text.sd_mutex_release,"ax",%progbits
	.align	1
	.syntax unified
	.thumb
	.thumb_func
	.fpu fpv4-sp-d16
	.type	sd_mutex_release, %function
sd_mutex_release:
.LFB152:
	.loc 1 404 1
	@ Naked Function: prologue and epilogue provided by programmer.
	@ args = 0, pretend = 0, frame = 0
	@ frame_needed = 0, uses_anonymous_args = 0
	.loc 1 404 1
	.syntax unified
@ 404 "../../../sdk_components/softdevice/s132/headers/nrf_soc.h" 1
	svc #45
bx r14
@ 0 "" 2
	.thumb
	.syntax unified
	nop
	mov	r0, r3
.LFE152:
	.size	sd_mutex_release, .-sd_mutex_release
	.section	.text.sd_rand_application_pool_capacity_get,"ax",%progbits
	.align	1
	.syntax unified
	.thumb
	.thumb_func
	.fpu fpv4-sp-d16
	.type	sd_rand_application_pool_capacity_get, %function
sd_rand_application_pool_capacity_get:
.LFB153:
	.loc 1 412 1
	@ Naked Function: prologue and epilogue provided by programmer.
	@ args = 0, pretend = 0, frame = 0
	@ frame_needed = 0, uses_anonymous_args = 0
	.loc 1 412 1
	.syntax unified
@ 412 "../../../sdk_components/softdevice/s132/headers/nrf_soc.h" 1
	svc #46
bx r14
@ 0 "" 2
	.thumb
	.syntax unified
	nop
	mov	r0, r3
.LFE153:
	.size	sd_rand_application_pool_capacity_get, .-sd_rand_application_pool_capacity_get
	.section	.text.sd_rand_application_bytes_available_get,"ax",%progbits
	.align	1
	.syntax unified
	.thumb
	.thumb_func
	.fpu fpv4-sp-d16
	.type	sd_rand_application_bytes_available_get, %function
sd_rand_application_bytes_available_get:
.LFB154:
	.loc 1 420 1
	@ Naked Function: prologue and epilogue provided by programmer.
	@ args = 0, pretend = 0, frame = 0
	@ frame_needed = 0, uses_anonymous_args = 0
	.loc 1 420 1
	.syntax unified
@ 420 "../../../sdk_components/softdevice/s132/headers/nrf_soc.h" 1
	svc #47
bx r14
@ 0 "" 2
	.thumb
	.syntax unified
	nop
	mov	r0, r3
.LFE154:
	.size	sd_rand_application_bytes_available_get, .-sd_rand_application_bytes_available_get
	.section	.text.sd_rand_application_vector_get,"ax",%progbits
	.align	1
	.syntax unified
	.thumb
	.thumb_func
	.fpu fpv4-sp-d16
	.type	sd_rand_application_vector_get, %function
sd_rand_application_vector_get:
.LFB155:
	.loc 1 430 1
	@ Naked Function: prologue and epilogue provided by programmer.
	@ args = 0, pretend = 0, frame = 0
	@ frame_needed = 0, uses_anonymous_args = 0
	.loc 1 430 1
	.syntax unified
@ 430 "../../../sdk_components/softdevice/s132/headers/nrf_soc.h" 1
	svc #48
bx r14
@ 0 "" 2
	.thumb
	.syntax unified
	nop
	mov	r0, r3
.LFE155:
	.size	sd_rand_application_vector_get, .-sd_rand_application_vector_get
	.section	.text.sd_power_reset_reason_get,"ax",%progbits
	.align	1
	.syntax unified
	.thumb
	.thumb_func
	.fpu fpv4-sp-d16
	.type	sd_power_reset_reason_get, %function
sd_power_reset_reason_get:
.LFB156:
	.loc 1 438 1
	@ Naked Function: prologue and epilogue provided by programmer.
	@ args = 0, pretend = 0, frame = 0
	@ frame_needed = 0, uses_anonymous_args = 0
	.loc 1 438 1
	.syntax unified
@ 438 "../../../sdk_components/softdevice/s132/headers/nrf_soc.h" 1
	svc #51
bx r14
@ 0 "" 2
	.thumb
	.syntax unified
	nop
	mov	r0, r3
.LFE156:
	.size	sd_power_reset_reason_get, .-sd_power_reset_reason_get
	.section	.text.sd_power_reset_reason_clr,"ax",%progbits
	.align	1
	.syntax unified
	.thumb
	.thumb_func
	.fpu fpv4-sp-d16
	.type	sd_power_reset_reason_clr, %function
sd_power_reset_reason_clr:
.LFB157:
	.loc 1 446 1
	@ Naked Function: prologue and epilogue provided by programmer.
	@ args = 0, pretend = 0, frame = 0
	@ frame_needed = 0, uses_anonymous_args = 0
	.loc 1 446 1
	.syntax unified
@ 446 "../../../sdk_components/softdevice/s132/headers/nrf_soc.h" 1
	svc #52
bx r14
@ 0 "" 2
	.thumb
	.syntax unified
	nop
	mov	r0, r3
.LFE157:
	.size	sd_power_reset_reason_clr, .-sd_power_reset_reason_clr
	.section	.text.sd_power_mode_set,"ax",%progbits
	.align	1
	.syntax unified
	.thumb
	.thumb_func
	.fpu fpv4-sp-d16
	.type	sd_power_mode_set, %function
sd_power_mode_set:
.LFB158:
	.loc 1 455 1
	@ Naked Function: prologue and epilogue provided by programmer.
	@ args = 0, pretend = 0, frame = 0
	@ frame_needed = 0, uses_anonymous_args = 0
	.loc 1 455 1
	.syntax unified
@ 455 "../../../sdk_components/softdevice/s132/headers/nrf_soc.h" 1
	svc #49
bx r14
@ 0 "" 2
	.thumb
	.syntax unified
	nop
	mov	r0, r3
.LFE158:
	.size	sd_power_mode_set, .-sd_power_mode_set
	.section	.text.sd_power_system_off,"ax",%progbits
	.align	1
	.syntax unified
	.thumb
	.thumb_func
	.fpu fpv4-sp-d16
	.type	sd_power_system_off, %function
sd_power_system_off:
.LFB159:
	.loc 1 461 1
	@ Naked Function: prologue and epilogue provided by programmer.
	@ args = 0, pretend = 0, frame = 0
	@ frame_needed = 0, uses_anonymous_args = 0
	.loc 1 461 1
	.syntax unified
@ 461 "../../../sdk_components/softdevice/s132/headers/nrf_soc.h" 1
	svc #50
bx r14
@ 0 "" 2
	.thumb
	.syntax unified
	nop
	mov	r0, r3
.LFE159:
	.size	sd_power_system_off, .-sd_power_system_off
	.section	.text.sd_power_pof_enable,"ax",%progbits
	.align	1
	.syntax unified
	.thumb
	.thumb_func
	.fpu fpv4-sp-d16
	.type	sd_power_pof_enable, %function
sd_power_pof_enable:
.LFB160:
	.loc 1 472 1
	@ Naked Function: prologue and epilogue provided by programmer.
	@ args = 0, pretend = 0, frame = 0
	@ frame_needed = 0, uses_anonymous_args = 0
	.loc 1 472 1
	.syntax unified
@ 472 "../../../sdk_components/softdevice/s132/headers/nrf_soc.h" 1
	svc #53
bx r14
@ 0 "" 2
	.thumb
	.syntax unified
	nop
	mov	r0, r3
.LFE160:
	.size	sd_power_pof_enable, .-sd_power_pof_enable
	.section	.text.sd_power_pof_threshold_set,"ax",%progbits
	.align	1
	.syntax unified
	.thumb
	.thumb_func
	.fpu fpv4-sp-d16
	.type	sd_power_pof_threshold_set, %function
sd_power_pof_threshold_set:
.LFB161:
	.loc 1 481 1
	@ Naked Function: prologue and epilogue provided by programmer.
	@ args = 0, pretend = 0, frame = 0
	@ frame_needed = 0, uses_anonymous_args = 0
	.loc 1 481 1
	.syntax unified
@ 481 "../../../sdk_components/softdevice/s132/headers/nrf_soc.h" 1
	svc #54
bx r14
@ 0 "" 2
	.thumb
	.syntax unified
	nop
	mov	r0, r3
.LFE161:
	.size	sd_power_pof_threshold_set, .-sd_power_pof_threshold_set
	.section	.text.sd_power_ram_power_set,"ax",%progbits
	.align	1
	.syntax unified
	.thumb
	.thumb_func
	.fpu fpv4-sp-d16
	.type	sd_power_ram_power_set, %function
sd_power_ram_power_set:
.LFB162:
	.loc 1 490 1
	@ Naked Function: prologue and epilogue provided by programmer.
	@ args = 0, pretend = 0, frame = 0
	@ frame_needed = 0, uses_anonymous_args = 0
	.loc 1 490 1
	.syntax unified
@ 490 "../../../sdk_components/softdevice/s132/headers/nrf_soc.h" 1
	svc #55
bx r14
@ 0 "" 2
	.thumb
	.syntax unified
	nop
	mov	r0, r3
.LFE162:
	.size	sd_power_ram_power_set, .-sd_power_ram_power_set
	.section	.text.sd_power_ram_power_clr,"ax",%progbits
	.align	1
	.syntax unified
	.thumb
	.thumb_func
	.fpu fpv4-sp-d16
	.type	sd_power_ram_power_clr, %function
sd_power_ram_power_clr:
.LFB163:
	.loc 1 499 1
	@ Naked Function: prologue and epilogue provided by programmer.
	@ args = 0, pretend = 0, frame = 0
	@ frame_needed = 0, uses_anonymous_args = 0
	.loc 1 499 1
	.syntax unified
@ 499 "../../../sdk_components/softdevice/s132/headers/nrf_soc.h" 1
	svc #56
bx r14
@ 0 "" 2
	.thumb
	.syntax unified
	nop
	mov	r0, r3
.LFE163:
	.size	sd_power_ram_power_clr, .-sd_power_ram_power_clr
	.section	.text.sd_power_ram_power_get,"ax",%progbits
	.align	1
	.syntax unified
	.thumb
	.thumb_func
	.fpu fpv4-sp-d16
	.type	sd_power_ram_power_get, %function
sd_power_ram_power_get:
.LFB164:
	.loc 1 508 1
	@ Naked Function: prologue and epilogue provided by programmer.
	@ args = 0, pretend = 0, frame = 0
	@ frame_needed = 0, uses_anonymous_args = 0
	.loc 1 508 1
	.syntax unified
@ 508 "../../../sdk_components/softdevice/s132/headers/nrf_soc.h" 1
	svc #57
bx r14
@ 0 "" 2
	.thumb
	.syntax unified
	nop
	mov	r0, r3
.LFE164:
	.size	sd_power_ram_power_get, .-sd_power_ram_power_get
	.section	.text.sd_power_gpregret_set,"ax",%progbits
	.align	1
	.syntax unified
	.thumb
	.thumb_func
	.fpu fpv4-sp-d16
	.type	sd_power_gpregret_set, %function
sd_power_gpregret_set:
.LFB165:
	.loc 1 518 1
	@ Naked Function: prologue and epilogue provided by programmer.
	@ args = 0, pretend = 0, frame = 0
	@ frame_needed = 0, uses_anonymous_args = 0
	.loc 1 518 1
	.syntax unified
@ 518 "../../../sdk_components/softdevice/s132/headers/nrf_soc.h" 1
	svc #58
bx r14
@ 0 "" 2
	.thumb
	.syntax unified
	nop
	mov	r0, r3
.LFE165:
	.size	sd_power_gpregret_set, .-sd_power_gpregret_set
	.section	.text.sd_power_gpregret_clr,"ax",%progbits
	.align	1
	.syntax unified
	.thumb
	.thumb_func
	.fpu fpv4-sp-d16
	.type	sd_power_gpregret_clr, %function
sd_power_gpregret_clr:
.LFB166:
	.loc 1 528 1
	@ Naked Function: prologue and epilogue provided by programmer.
	@ args = 0, pretend = 0, frame = 0
	@ frame_needed = 0, uses_anonymous_args = 0
	.loc 1 528 1
	.syntax unified
@ 528 "../../../sdk_components/softdevice/s132/headers/nrf_soc.h" 1
	svc #59
bx r14
@ 0 "" 2
	.thumb
	.syntax unified
	nop
	mov	r0, r3
.LFE166:
	.size	sd_power_gpregret_clr, .-sd_power_gpregret_clr
	.section	.text.sd_power_gpregret_get,"ax",%progbits
	.align	1
	.syntax unified
	.thumb
	.thumb_func
	.fpu fpv4-sp-d16
	.type	sd_power_gpregret_get, %function
sd_power_gpregret_get:
.LFB167:
	.loc 1 538 1
	@ Naked Function: prologue and epilogue provided by programmer.
	@ args = 0, pretend = 0, frame = 0
	@ frame_needed = 0, uses_anonymous_args = 0
	.loc 1 538 1
	.syntax unified
@ 538 "../../../sdk_components/softdevice/s132/headers/nrf_soc.h" 1
	svc #60
bx r14
@ 0 "" 2
	.thumb
	.syntax unified
	nop
	mov	r0, r3
.LFE167:
	.size	sd_power_gpregret_get, .-sd_power_gpregret_get
	.section	.text.sd_power_dcdc_mode_set,"ax",%progbits
	.align	1
	.syntax unified
	.thumb
	.thumb_func
	.fpu fpv4-sp-d16
	.type	sd_power_dcdc_mode_set, %function
sd_power_dcdc_mode_set:
.LFB168:
	.loc 1 549 1
	@ Naked Function: prologue and epilogue provided by programmer.
	@ args = 0, pretend = 0, frame = 0
	@ frame_needed = 0, uses_anonymous_args = 0
	.loc 1 549 1
	.syntax unified
@ 549 "../../../sdk_components/softdevice/s132/headers/nrf_soc.h" 1
	svc #61
bx r14
@ 0 "" 2
	.thumb
	.syntax unified
	nop
	mov	r0, r3
.LFE168:
	.size	sd_power_dcdc_mode_set, .-sd_power_dcdc_mode_set
	.section	.text.sd_clock_hfclk_request,"ax",%progbits
	.align	1
	.syntax unified
	.thumb
	.thumb_func
	.fpu fpv4-sp-d16
	.type	sd_clock_hfclk_request, %function
sd_clock_hfclk_request:
.LFB169:
	.loc 1 561 1
	@ Naked Function: prologue and epilogue provided by programmer.
	@ args = 0, pretend = 0, frame = 0
	@ frame_needed = 0, uses_anonymous_args = 0
	.loc 1 561 1
	.syntax unified
@ 561 "../../../sdk_components/softdevice/s132/headers/nrf_soc.h" 1
	svc #63
bx r14
@ 0 "" 2
	.thumb
	.syntax unified
	nop
	mov	r0, r3
.LFE169:
	.size	sd_clock_hfclk_request, .-sd_clock_hfclk_request
	.section	.text.sd_clock_hfclk_release,"ax",%progbits
	.align	1
	.syntax unified
	.thumb
	.thumb_func
	.fpu fpv4-sp-d16
	.type	sd_clock_hfclk_release, %function
sd_clock_hfclk_release:
.LFB170:
	.loc 1 572 1
	@ Naked Function: prologue and epilogue provided by programmer.
	@ args = 0, pretend = 0, frame = 0
	@ frame_needed = 0, uses_anonymous_args = 0
	.loc 1 572 1
	.syntax unified
@ 572 "../../../sdk_components/softdevice/s132/headers/nrf_soc.h" 1
	svc #64
bx r14
@ 0 "" 2
	.thumb
	.syntax unified
	nop
	mov	r0, r3
.LFE170:
	.size	sd_clock_hfclk_release, .-sd_clock_hfclk_release
	.section	.text.sd_clock_hfclk_is_running,"ax",%progbits
	.align	1
	.syntax unified
	.thumb
	.thumb_func
	.fpu fpv4-sp-d16
	.type	sd_clock_hfclk_is_running, %function
sd_clock_hfclk_is_running:
.LFB171:
	.loc 1 583 1
	@ Naked Function: prologue and epilogue provided by programmer.
	@ args = 0, pretend = 0, frame = 0
	@ frame_needed = 0, uses_anonymous_args = 0
	.loc 1 583 1
	.syntax unified
@ 583 "../../../sdk_components/softdevice/s132/headers/nrf_soc.h" 1
	svc #65
bx r14
@ 0 "" 2
	.thumb
	.syntax unified
	nop
	mov	r0, r3
.LFE171:
	.size	sd_clock_hfclk_is_running, .-sd_clock_hfclk_is_running
	.section	.text.sd_app_evt_wait,"ax",%progbits
	.align	1
	.syntax unified
	.thumb
	.thumb_func
	.fpu fpv4-sp-d16
	.type	sd_app_evt_wait, %function
sd_app_evt_wait:
.LFB172:
	.loc 1 611 1
	@ Naked Function: prologue and epilogue provided by programmer.
	@ args = 0, pretend = 0, frame = 0
	@ frame_needed = 0, uses_anonymous_args = 0
	.loc 1 611 1
	.syntax unified
@ 611 "../../../sdk_components/softdevice/s132/headers/nrf_soc.h" 1
	svc #62
bx r14
@ 0 "" 2
	.thumb
	.syntax unified
	nop
	mov	r0, r3
.LFE172:
	.size	sd_app_evt_wait, .-sd_app_evt_wait
	.section	.text.sd_ppi_channel_enable_get,"ax",%progbits
	.align	1
	.syntax unified
	.thumb
	.thumb_func
	.fpu fpv4-sp-d16
	.type	sd_ppi_channel_enable_get, %function
sd_ppi_channel_enable_get:
.LFB173:
	.loc 1 619 1
	@ Naked Function: prologue and epilogue provided by programmer.
	@ args = 0, pretend = 0, frame = 0
	@ frame_needed = 0, uses_anonymous_args = 0
	.loc 1 619 1
	.syntax unified
@ 619 "../../../sdk_components/softdevice/s132/headers/nrf_soc.h" 1
	svc #32
bx r14
@ 0 "" 2
	.thumb
	.syntax unified
	nop
	mov	r0, r3
.LFE173:
	.size	sd_ppi_channel_enable_get, .-sd_ppi_channel_enable_get
	.section	.text.sd_ppi_channel_enable_set,"ax",%progbits
	.align	1
	.syntax unified
	.thumb
	.thumb_func
	.fpu fpv4-sp-d16
	.type	sd_ppi_channel_enable_set, %function
sd_ppi_channel_enable_set:
.LFB174:
	.loc 1 627 1
	@ Naked Function: prologue and epilogue provided by programmer.
	@ args = 0, pretend = 0, frame = 0
	@ frame_needed = 0, uses_anonymous_args = 0
	.loc 1 627 1
	.syntax unified
@ 627 "../../../sdk_components/softdevice/s132/headers/nrf_soc.h" 1
	svc #33
bx r14
@ 0 "" 2
	.thumb
	.syntax unified
	nop
	mov	r0, r3
.LFE174:
	.size	sd_ppi_channel_enable_set, .-sd_ppi_channel_enable_set
	.section	.text.sd_ppi_channel_enable_clr,"ax",%progbits
	.align	1
	.syntax unified
	.thumb
	.thumb_func
	.fpu fpv4-sp-d16
	.type	sd_ppi_channel_enable_clr, %function
sd_ppi_channel_enable_clr:
.LFB175:
	.loc 1 635 1
	@ Naked Function: prologue and epilogue provided by programmer.
	@ args = 0, pretend = 0, frame = 0
	@ frame_needed = 0, uses_anonymous_args = 0
	.loc 1 635 1
	.syntax unified
@ 635 "../../../sdk_components/softdevice/s132/headers/nrf_soc.h" 1
	svc #34
bx r14
@ 0 "" 2
	.thumb
	.syntax unified
	nop
	mov	r0, r3
.LFE175:
	.size	sd_ppi_channel_enable_clr, .-sd_ppi_channel_enable_clr
	.section	.text.sd_ppi_channel_assign,"ax",%progbits
	.align	1
	.syntax unified
	.thumb
	.thumb_func
	.fpu fpv4-sp-d16
	.type	sd_ppi_channel_assign, %function
sd_ppi_channel_assign:
.LFB176:
	.loc 1 646 1
	@ Naked Function: prologue and epilogue provided by programmer.
	@ args = 0, pretend = 0, frame = 0
	@ frame_needed = 0, uses_anonymous_args = 0
	.loc 1 646 1
	.syntax unified
@ 646 "../../../sdk_components/softdevice/s132/headers/nrf_soc.h" 1
	svc #35
bx r14
@ 0 "" 2
	.thumb
	.syntax unified
	nop
	mov	r0, r3
.LFE176:
	.size	sd_ppi_channel_assign, .-sd_ppi_channel_assign
	.section	.text.sd_ppi_group_task_enable,"ax",%progbits
	.align	1
	.syntax unified
	.thumb
	.thumb_func
	.fpu fpv4-sp-d16
	.type	sd_ppi_group_task_enable, %function
sd_ppi_group_task_enable:
.LFB177:
	.loc 1 655 1
	@ Naked Function: prologue and epilogue provided by programmer.
	@ args = 0, pretend = 0, frame = 0
	@ frame_needed = 0, uses_anonymous_args = 0
	.loc 1 655 1
	.syntax unified
@ 655 "../../../sdk_components/softdevice/s132/headers/nrf_soc.h" 1
	svc #36
bx r14
@ 0 "" 2
	.thumb
	.syntax unified
	nop
	mov	r0, r3
.LFE177:
	.size	sd_ppi_group_task_enable, .-sd_ppi_group_task_enable
	.section	.text.sd_ppi_group_task_disable,"ax",%progbits
	.align	1
	.syntax unified
	.thumb
	.thumb_func
	.fpu fpv4-sp-d16
	.type	sd_ppi_group_task_disable, %function
sd_ppi_group_task_disable:
.LFB178:
	.loc 1 664 1
	@ Naked Function: prologue and epilogue provided by programmer.
	@ args = 0, pretend = 0, frame = 0
	@ frame_needed = 0, uses_anonymous_args = 0
	.loc 1 664 1
	.syntax unified
@ 664 "../../../sdk_components/softdevice/s132/headers/nrf_soc.h" 1
	svc #37
bx r14
@ 0 "" 2
	.thumb
	.syntax unified
	nop
	mov	r0, r3
.LFE178:
	.size	sd_ppi_group_task_disable, .-sd_ppi_group_task_disable
	.section	.text.sd_ppi_group_assign,"ax",%progbits
	.align	1
	.syntax unified
	.thumb
	.thumb_func
	.fpu fpv4-sp-d16
	.type	sd_ppi_group_assign, %function
sd_ppi_group_assign:
.LFB179:
	.loc 1 674 1
	@ Naked Function: prologue and epilogue provided by programmer.
	@ args = 0, pretend = 0, frame = 0
	@ frame_needed = 0, uses_anonymous_args = 0
	.loc 1 674 1
	.syntax unified
@ 674 "../../../sdk_components/softdevice/s132/headers/nrf_soc.h" 1
	svc #38
bx r14
@ 0 "" 2
	.thumb
	.syntax unified
	nop
	mov	r0, r3
.LFE179:
	.size	sd_ppi_group_assign, .-sd_ppi_group_assign
	.section	.text.sd_ppi_group_get,"ax",%progbits
	.align	1
	.syntax unified
	.thumb
	.thumb_func
	.fpu fpv4-sp-d16
	.type	sd_ppi_group_get, %function
sd_ppi_group_get:
.LFB180:
	.loc 1 684 1
	@ Naked Function: prologue and epilogue provided by programmer.
	@ args = 0, pretend = 0, frame = 0
	@ frame_needed = 0, uses_anonymous_args = 0
	.loc 1 684 1
	.syntax unified
@ 684 "../../../sdk_components/softdevice/s132/headers/nrf_soc.h" 1
	svc #39
bx r14
@ 0 "" 2
	.thumb
	.syntax unified
	nop
	mov	r0, r3
.LFE180:
	.size	sd_ppi_group_get, .-sd_ppi_group_get
	.section	.text.sd_radio_notification_cfg_set,"ax",%progbits
	.align	1
	.syntax unified
	.thumb
	.thumb_func
	.fpu fpv4-sp-d16
	.type	sd_radio_notification_cfg_set, %function
sd_radio_notification_cfg_set:
.LFB181:
	.loc 1 715 1
	@ Naked Function: prologue and epilogue provided by programmer.
	@ args = 0, pretend = 0, frame = 0
	@ frame_needed = 0, uses_anonymous_args = 0
	.loc 1 715 1
	.syntax unified
@ 715 "../../../sdk_components/softdevice/s132/headers/nrf_soc.h" 1
	svc #66
bx r14
@ 0 "" 2
	.thumb
	.syntax unified
	nop
	mov	r0, r3
.LFE181:
	.size	sd_radio_notification_cfg_set, .-sd_radio_notification_cfg_set
	.section	.text.sd_ecb_block_encrypt,"ax",%progbits
	.align	1
	.syntax unified
	.thumb
	.thumb_func
	.fpu fpv4-sp-d16
	.type	sd_ecb_block_encrypt, %function
sd_ecb_block_encrypt:
.LFB182:
	.loc 1 731 1
	@ Naked Function: prologue and epilogue provided by programmer.
	@ args = 0, pretend = 0, frame = 0
	@ frame_needed = 0, uses_anonymous_args = 0
	.loc 1 731 1
	.syntax unified
@ 731 "../../../sdk_components/softdevice/s132/headers/nrf_soc.h" 1
	svc #67
bx r14
@ 0 "" 2
	.thumb
	.syntax unified
	nop
	mov	r0, r3
.LFE182:
	.size	sd_ecb_block_encrypt, .-sd_ecb_block_encrypt
	.section	.text.sd_ecb_blocks_encrypt,"ax",%progbits
	.align	1
	.syntax unified
	.thumb
	.thumb_func
	.fpu fpv4-sp-d16
	.type	sd_ecb_blocks_encrypt, %function
sd_ecb_blocks_encrypt:
.LFB183:
	.loc 1 748 1
	@ Naked Function: prologue and epilogue provided by programmer.
	@ args = 0, pretend = 0, frame = 0
	@ frame_needed = 0, uses_anonymous_args = 0
	.loc 1 748 1
	.syntax unified
@ 748 "../../../sdk_components/softdevice/s132/headers/nrf_soc.h" 1
	svc #68
bx r14
@ 0 "" 2
	.thumb
	.syntax unified
	nop
	mov	r0, r3
.LFE183:
	.size	sd_ecb_blocks_encrypt, .-sd_ecb_blocks_encrypt
	.section	.text.sd_evt_get,"ax",%progbits
	.align	1
	.syntax unified
	.thumb
	.thumb_func
	.fpu fpv4-sp-d16
	.type	sd_evt_get, %function
sd_evt_get:
.LFB184:
	.loc 1 759 1
	@ Naked Function: prologue and epilogue provided by programmer.
	@ args = 0, pretend = 0, frame = 0
	@ frame_needed = 0, uses_anonymous_args = 0
	.loc 1 759 1
	.syntax unified
@ 759 "../../../sdk_components/softdevice/s132/headers/nrf_soc.h" 1
	svc #72
bx r14
@ 0 "" 2
	.thumb
	.syntax unified
	nop
	mov	r0, r3
.LFE184:
	.size	sd_evt_get, .-sd_evt_get
	.section	.text.sd_temp_get,"ax",%progbits
	.align	1
	.syntax unified
	.thumb
	.thumb_func
	.fpu fpv4-sp-d16
	.type	sd_temp_get, %function
sd_temp_get:
.LFB185:
	.loc 1 770 1
	@ Naked Function: prologue and epilogue provided by programmer.
	@ args = 0, pretend = 0, frame = 0
	@ frame_needed = 0, uses_anonymous_args = 0
	.loc 1 770 1
	.syntax unified
@ 770 "../../../sdk_components/softdevice/s132/headers/nrf_soc.h" 1
	svc #73
bx r14
@ 0 "" 2
	.thumb
	.syntax unified
	nop
	mov	r0, r3
.LFE185:
	.size	sd_temp_get, .-sd_temp_get
	.section	.text.sd_flash_write,"ax",%progbits
	.align	1
	.syntax unified
	.thumb
	.thumb_func
	.fpu fpv4-sp-d16
	.type	sd_flash_write, %function
sd_flash_write:
.LFB186:
	.loc 1 804 1
	@ Naked Function: prologue and epilogue provided by programmer.
	@ args = 0, pretend = 0, frame = 0
	@ frame_needed = 0, uses_anonymous_args = 0
	.loc 1 804 1
	.syntax unified
@ 804 "../../../sdk_components/softdevice/s132/headers/nrf_soc.h" 1
	svc #41
bx r14
@ 0 "" 2
	.thumb
	.syntax unified
	nop
	mov	r0, r3
.LFE186:
	.size	sd_flash_write, .-sd_flash_write
	.section	.text.sd_flash_page_erase,"ax",%progbits
	.align	1
	.syntax unified
	.thumb
	.thumb_func
	.fpu fpv4-sp-d16
	.type	sd_flash_page_erase, %function
sd_flash_page_erase:
.LFB187:
	.loc 1 834 1
	@ Naked Function: prologue and epilogue provided by programmer.
	@ args = 0, pretend = 0, frame = 0
	@ frame_needed = 0, uses_anonymous_args = 0
	.loc 1 834 1
	.syntax unified
@ 834 "../../../sdk_components/softdevice/s132/headers/nrf_soc.h" 1
	svc #40
bx r14
@ 0 "" 2
	.thumb
	.syntax unified
	nop
	mov	r0, r3
.LFE187:
	.size	sd_flash_page_erase, .-sd_flash_page_erase
	.section	.text.sd_flash_protect,"ax",%progbits
	.align	1
	.syntax unified
	.thumb
	.thumb_func
	.fpu fpv4-sp-d16
	.type	sd_flash_protect, %function
sd_flash_protect:
.LFB188:
	.loc 1 853 1
	@ Naked Function: prologue and epilogue provided by programmer.
	@ args = 0, pretend = 0, frame = 0
	@ frame_needed = 0, uses_anonymous_args = 0
	.loc 1 853 1
	.syntax unified
@ 853 "../../../sdk_components/softdevice/s132/headers/nrf_soc.h" 1
	svc #42
bx r14
@ 0 "" 2
	.thumb
	.syntax unified
	nop
	mov	r0, r3
.LFE188:
	.size	sd_flash_protect, .-sd_flash_protect
	.section	.text.sd_radio_session_open,"ax",%progbits
	.align	1
	.syntax unified
	.thumb
	.thumb_func
	.fpu fpv4-sp-d16
	.type	sd_radio_session_open, %function
sd_radio_session_open:
.LFB189:
	.loc 1 875 2
	@ Naked Function: prologue and epilogue provided by programmer.
	@ args = 0, pretend = 0, frame = 0
	@ frame_needed = 0, uses_anonymous_args = 0
	.loc 1 875 2
	.syntax unified
@ 875 "../../../sdk_components/softdevice/s132/headers/nrf_soc.h" 1
	svc #69
bx r14
@ 0 "" 2
	.thumb
	.syntax unified
	nop
	mov	r0, r3
.LFE189:
	.size	sd_radio_session_open, .-sd_radio_session_open
	.section	.text.sd_radio_session_close,"ax",%progbits
	.align	1
	.syntax unified
	.thumb
	.thumb_func
	.fpu fpv4-sp-d16
	.type	sd_radio_session_close, %function
sd_radio_session_close:
.LFB190:
	.loc 1 888 2
	@ Naked Function: prologue and epilogue provided by programmer.
	@ args = 0, pretend = 0, frame = 0
	@ frame_needed = 0, uses_anonymous_args = 0
	.loc 1 888 2
	.syntax unified
@ 888 "../../../sdk_components/softdevice/s132/headers/nrf_soc.h" 1
	svc #70
bx r14
@ 0 "" 2
	.thumb
	.syntax unified
	nop
	mov	r0, r3
.LFE190:
	.size	sd_radio_session_close, .-sd_radio_session_close
	.section	.text.sd_radio_request,"ax",%progbits
	.align	1
	.syntax unified
	.thumb
	.thumb_func
	.fpu fpv4-sp-d16
	.type	sd_radio_request, %function
sd_radio_request:
.LFB191:
	.loc 1 920 2
	@ Naked Function: prologue and epilogue provided by programmer.
	@ args = 0, pretend = 0, frame = 0
	@ frame_needed = 0, uses_anonymous_args = 0
	.loc 1 920 2
	.syntax unified
@ 920 "../../../sdk_components/softdevice/s132/headers/nrf_soc.h" 1
	svc #71
bx r14
@ 0 "" 2
	.thumb
	.syntax unified
	nop
	mov	r0, r3
.LFE191:
	.size	sd_radio_request, .-sd_radio_request
	.section	.bss.m_drv_ccs811,"aw",%nobits
	.align	2
	.type	m_drv_ccs811, %object
	.size	m_drv_ccs811, 4
m_drv_ccs811:
	.space	4
	.section	.text.reg_set,"ax",%progbits
	.align	1
	.syntax unified
	.thumb
	.thumb_func
	.fpu fpv4-sp-d16
	.type	reg_set, %function
reg_set:
.LFB224:
	.file 2 "C:\\Research\\12_mesh_v101_demo\\Nordic-Thingy52-FW\\source\\drivers\\drv_ccs811.c"
	.loc 2 89 1
	@ args = 0, pretend = 0, frame = 16
	@ frame_needed = 0, uses_anonymous_args = 0
	push	{lr}
.LCFI0:
	sub	sp, sp, #28
.LCFI1:
	mov	r3, r0
	mov	r2, r1
	strb	r3, [sp, #15]
	mov	r3, r2
	strb	r3, [sp, #14]
	.loc 2 90 22
	ldr	r3, .L46
	ldr	r3, [r3]
	.loc 2 90 8
	cmp	r3, #0
	beq	.L44
.LBB2:
	.loc 2 92 56
	ldr	r3, .L46
	ldr	r3, [r3]
	.loc 2 92 31
	ldr	r3, [r3, #4]
	str	r3, [sp, #20]
	.loc 2 93 56
	ldr	r3, .L46
	ldr	r3, [r3]
	.loc 2 93 31
	ldrb	r3, [r3]
	strb	r3, [sp, #19]
	.loc 2 94 17
	ldrb	r3, [sp, #15]
	strb	r3, [sp, #16]
	ldrb	r3, [sp, #14]
	strb	r3, [sp, #17]
	.loc 2 96 18
	add	r2, sp, #16
	ldrb	r1, [sp, #19]	@ zero_extendqisi2
	movs	r3, #0
	str	r3, [sp]
	movs	r3, #2
	ldr	r0, [sp, #20]
	bl	nrf_drv_twi_tx
	mov	r3, r0
	.loc 2 96 87
	cmp	r3, #0
	ite	eq
	moveq	r3, #1
	movne	r3, #0
	uxtb	r3, r3
	b	.L45
.L44:
.LBE2:
	.loc 2 99 12
	movs	r3, #0
.L45:
	.loc 2 100 1 discriminator 1
	mov	r0, r3
	add	sp, sp, #28
.LCFI2:
	@ sp needed
	ldr	pc, [sp], #4
.L47:
	.align	2
.L46:
	.word	m_drv_ccs811
.LFE224:
	.size	reg_set, .-reg_set
	.section	.text.reg_get,"ax",%progbits
	.align	1
	.syntax unified
	.thumb
	.thumb_func
	.fpu fpv4-sp-d16
	.type	reg_get, %function
reg_get:
.LFB225:
	.loc 2 106 1
	@ args = 0, pretend = 0, frame = 16
	@ frame_needed = 0, uses_anonymous_args = 0
	push	{lr}
.LCFI3:
	sub	sp, sp, #28
.LCFI4:
	mov	r3, r0
	str	r1, [sp, #8]
	strb	r3, [sp, #15]
	.loc 2 107 22
	ldr	r3, .L53
	ldr	r3, [r3]
	.loc 2 107 8
	cmp	r3, #0
	beq	.L49
.LBB3:
	.loc 2 109 56
	ldr	r3, .L53
	ldr	r3, [r3]
	.loc 2 109 31
	ldr	r3, [r3, #4]
	str	r3, [sp, #20]
	.loc 2 110 56
	ldr	r3, .L53
	ldr	r3, [r3]
	.loc 2 110 31
	ldrb	r3, [r3]
	strb	r3, [sp, #19]
	.loc 2 112 19
	add	r2, sp, #15
	ldrb	r1, [sp, #19]	@ zero_extendqisi2
	movs	r3, #1
	str	r3, [sp]
	movs	r3, #1
	ldr	r0, [sp, #20]
	bl	nrf_drv_twi_tx
	mov	r3, r0
	.loc 2 113 9
	cmp	r3, #0
	bne	.L50
	.loc 2 113 19 discriminator 1
	ldrb	r1, [sp, #19]	@ zero_extendqisi2
	movs	r3, #1
	ldr	r2, [sp, #8]
	ldr	r0, [sp, #20]
	bl	nrf_drv_twi_rx
	mov	r3, r0
	.loc 2 113 9 discriminator 1
	cmp	r3, #0
	bne	.L50
	.loc 2 113 9 is_stmt 0 discriminator 3
	movs	r3, #1
	b	.L51
.L50:
	.loc 2 113 9 discriminator 4
	movs	r3, #0
.L51:
	.loc 2 113 9 discriminator 6
	and	r3, r3, #1
	uxtb	r3, r3
	b	.L52
.L49:
.LBE3:
	.loc 2 116 12 is_stmt 1
	movs	r3, #0
.L52:
	.loc 2 117 1
	mov	r0, r3
	add	sp, sp, #28
.LCFI5:
	@ sp needed
	ldr	pc, [sp], #4
.L54:
	.align	2
.L53:
	.word	m_drv_ccs811
.LFE225:
	.size	reg_get, .-reg_get
	.section	.text.register_bits_modify,"ax",%progbits
	.align	1
	.syntax unified
	.thumb
	.thumb_func
	.fpu fpv4-sp-d16
	.type	register_bits_modify, %function
register_bits_modify:
.LFB226:
	.loc 2 123 1
	@ args = 0, pretend = 0, frame = 16
	@ frame_needed = 0, uses_anonymous_args = 0
	push	{lr}
.LCFI6:
	sub	sp, sp, #20
.LCFI7:
	mov	r3, r0
	strb	r3, [sp, #7]
	mov	r3, r1
	strb	r3, [sp, #6]
	mov	r3, r2
	strb	r3, [sp, #5]
	.loc 2 126 43
	ldrb	r2, [sp, #6]
	ldrb	r3, [sp, #5]
	ands	r3, r3, r2
	uxtb	r3, r3
	.loc 2 126 8
	cmp	r3, #0
	bne	.L56
	.loc 2 127 23
	ldr	r3, .L59
	ldr	r3, [r3]
	.loc 2 127 5
	cmp	r3, #0
	beq	.L56
	.loc 2 128 11
	add	r2, sp, #15
	ldrb	r3, [sp, #7]	@ zero_extendqisi2
	mov	r1, r2
	mov	r0, r3
	bl	reg_get
	mov	r3, r0
	.loc 2 128 5
	cmp	r3, #0
	beq	.L56
	.loc 2 130 16
	ldrb	r2, [sp, #15]	@ zero_extendqisi2
	ldrb	r3, [sp, #6]
	orrs	r3, r3, r2
	uxtb	r3, r3
	strb	r3, [sp, #15]
	.loc 2 131 16
	ldrsb	r3, [sp, #5]
	mvns	r3, r3
	sxtb	r2, r3
	ldrb	r3, [sp, #15]	@ zero_extendqisi2
	sxtb	r3, r3
	ands	r3, r3, r2
	sxtb	r3, r3
	uxtb	r3, r3
	strb	r3, [sp, #15]
	.loc 2 132 18
	ldrb	r2, [sp, #15]	@ zero_extendqisi2
	ldrb	r3, [sp, #7]	@ zero_extendqisi2
	mov	r1, r2
	mov	r0, r3
	bl	reg_set
	mov	r3, r0
	b	.L58
.L56:
	.loc 2 135 12
	movs	r3, #0
.L58:
	.loc 2 136 1 discriminator 1
	mov	r0, r3
	add	sp, sp, #20
.LCFI8:
	@ sp needed
	ldr	pc, [sp], #4
.L60:
	.align	2
.L59:
	.word	m_drv_ccs811
.LFE226:
	.size	register_bits_modify, .-register_bits_modify
	.section	.text.multi_byte_register_get,"ax",%progbits
	.align	1
	.syntax unified
	.thumb
	.thumb_func
	.fpu fpv4-sp-d16
	.type	multi_byte_register_get, %function
multi_byte_register_get:
.LFB227:
	.loc 2 142 1
	@ args = 0, pretend = 0, frame = 16
	@ frame_needed = 0, uses_anonymous_args = 0
	push	{lr}
.LCFI9:
	sub	sp, sp, #28
.LCFI10:
	mov	r3, r0
	str	r2, [sp, #8]
	strb	r3, [sp, #15]
	mov	r3, r1
	strb	r3, [sp, #14]
	.loc 2 143 22
	ldr	r3, .L64
	ldr	r3, [r3]
	.loc 2 143 8
	cmp	r3, #0
	beq	.L62
.LBB4:
	.loc 2 145 56
	ldr	r3, .L64
	ldr	r3, [r3]
	.loc 2 145 31
	ldr	r3, [r3, #4]
	str	r3, [sp, #20]
	.loc 2 146 56
	ldr	r3, .L64
	ldr	r3, [r3]
	.loc 2 146 31
	ldrb	r3, [r3]
	strb	r3, [sp, #19]
	.loc 2 148 15
	add	r2, sp, #15
	ldrb	r1, [sp, #19]	@ zero_extendqisi2
	movs	r3, #1
	str	r3, [sp]
	movs	r3, #1
	ldr	r0, [sp, #20]
	bl	nrf_drv_twi_tx
	mov	r3, r0
	.loc 2 148 12
	cmp	r3, #0
	bne	.L62
	.loc 2 149 15
	ldrb	r3, [sp, #14]	@ zero_extendqisi2
	ldrb	r1, [sp, #19]	@ zero_extendqisi2
	ldr	r2, [sp, #8]
	ldr	r0, [sp, #20]
	bl	nrf_drv_twi_rx
	mov	r3, r0
	.loc 2 149 9
	cmp	r3, #0
	bne	.L62
	.loc 2 151 20
	movs	r3, #1
	b	.L63
.L62:
.LBE4:
	.loc 2 155 12
	movs	r3, #0
.L63:
	.loc 2 156 1
	mov	r0, r3
	add	sp, sp, #28
.LCFI11:
	@ sp needed
	ldr	pc, [sp], #4
.L65:
	.align	2
.L64:
	.word	m_drv_ccs811
.LFE227:
	.size	multi_byte_register_get, .-multi_byte_register_get
	.section	.text.multi_byte_register_set,"ax",%progbits
	.align	1
	.syntax unified
	.thumb
	.thumb_func
	.fpu fpv4-sp-d16
	.type	multi_byte_register_set, %function
multi_byte_register_set:
.LFB228:
	.loc 2 164 1
	@ args = 0, pretend = 0, frame = 16
	@ frame_needed = 0, uses_anonymous_args = 0
	push	{lr}
.LCFI12:
	sub	sp, sp, #28
.LCFI13:
	mov	r3, r0
	str	r1, [sp, #8]
	strb	r3, [sp, #15]
	.loc 2 165 22
	ldr	r3, .L69
	ldr	r3, [r3]
	.loc 2 165 8
	cmp	r3, #0
	beq	.L67
.LBB5:
	.loc 2 167 56
	ldr	r3, .L69
	ldr	r3, [r3]
	.loc 2 167 31
	ldr	r3, [r3, #4]
	str	r3, [sp, #20]
	.loc 2 168 56
	ldr	r3, .L69
	ldr	r3, [r3]
	.loc 2 168 31
	ldrb	r3, [r3]
	strb	r3, [sp, #19]
	.loc 2 170 19
	ldrb	r2, [sp, #15]	@ zero_extendqisi2
	ldrb	r1, [sp, #19]	@ zero_extendqisi2
	movs	r3, #0
	str	r3, [sp]
	mov	r3, r2
	ldr	r2, [sp, #8]
	ldr	r0, [sp, #20]
	bl	nrf_drv_twi_tx
	mov	r3, r0
	.loc 2 170 91
	cmp	r3, #0
	ite	eq
	moveq	r3, #1
	movne	r3, #0
	uxtb	r3, r3
	b	.L68
.L67:
.LBE5:
	.loc 2 173 12
	movs	r3, #0
.L68:
	.loc 2 174 1
	mov	r0, r3
	add	sp, sp, #28
.LCFI14:
	@ sp needed
	ldr	pc, [sp], #4
.L70:
	.align	2
.L69:
	.word	m_drv_ccs811
.LFE228:
	.size	multi_byte_register_set, .-multi_byte_register_set
	.section	.text.drv_ccs811_init,"ax",%progbits
	.align	1
	.global	drv_ccs811_init
	.syntax unified
	.thumb
	.thumb_func
	.fpu fpv4-sp-d16
	.type	drv_ccs811_init, %function
drv_ccs811_init:
.LFB229:
	.loc 2 178 1
	@ args = 0, pretend = 0, frame = 0
	@ frame_needed = 0, uses_anonymous_args = 0
	@ link register save eliminated.
	.loc 2 179 35
	ldr	r3, .L72
	movs	r2, #0
	str	r2, [r3]
	.loc 2 180 1
	nop
	bx	lr
.L73:
	.align	2
.L72:
	.word	m_drv_ccs811
.LFE229:
	.size	drv_ccs811_init, .-drv_ccs811_init
	.section	.text.drv_ccs811_open,"ax",%progbits
	.align	1
	.global	drv_ccs811_open
	.syntax unified
	.thumb
	.thumb_func
	.fpu fpv4-sp-d16
	.type	drv_ccs811_open, %function
drv_ccs811_open:
.LFB230:
	.loc 2 184 1
	@ args = 0, pretend = 0, frame = 16
	@ frame_needed = 0, uses_anonymous_args = 0
	push	{lr}
.LCFI15:
	sub	sp, sp, #20
.LCFI16:
	str	r0, [sp, #4]
	.loc 2 185 22
	ldr	r3, .L78
	ldr	r3, [r3]
	.loc 2 185 8
	cmp	r3, #0
	bne	.L75
.LBB6:
	.loc 2 188 20
	ldr	r3, [sp, #4]
	ldr	r0, [r3, #4]
	ldr	r3, [sp, #4]
	ldr	r1, [r3, #8]
	movs	r3, #0
	movs	r2, #0
	bl	twi_manager_request
	str	r0, [sp, #12]
	.loc 2 192 12
	ldr	r3, [sp, #12]
	cmp	r3, #0
	beq	.L76
	.loc 2 194 20
	movs	r3, #1
	b	.L77
.L76:
	.loc 2 197 9
	ldr	r3, [sp, #4]
	ldr	r3, [r3, #4]
	mov	r0, r3
	bl	nrf_drv_twi_enable
	.loc 2 198 39
	ldr	r2, .L78
	ldr	r3, [sp, #4]
	str	r3, [r2]
	.loc 2 200 16
	movs	r3, #0
	b	.L77
.L75:
.LBE6:
	.loc 2 203 12
	movs	r3, #1
.L77:
	.loc 2 204 1
	mov	r0, r3
	add	sp, sp, #20
.LCFI17:
	@ sp needed
	ldr	pc, [sp], #4
.L79:
	.align	2
.L78:
	.word	m_drv_ccs811
.LFE230:
	.size	drv_ccs811_open, .-drv_ccs811_open
	.section	.text.drv_ccs811_status_get,"ax",%progbits
	.align	1
	.global	drv_ccs811_status_get
	.syntax unified
	.thumb
	.thumb_func
	.fpu fpv4-sp-d16
	.type	drv_ccs811_status_get, %function
drv_ccs811_status_get:
.LFB231:
	.loc 2 208 1
	@ args = 0, pretend = 0, frame = 8
	@ frame_needed = 0, uses_anonymous_args = 0
	push	{lr}
.LCFI18:
	sub	sp, sp, #12
.LCFI19:
	str	r0, [sp, #4]
	.loc 2 209 10
	ldr	r1, [sp, #4]
	movs	r0, #0
	bl	reg_get
	mov	r3, r0
	.loc 2 209 8
	cmp	r3, #0
	beq	.L81
	.loc 2 211 16
	movs	r3, #0
	b	.L82
.L81:
	.loc 2 214 12
	movs	r3, #1
.L82:
	.loc 2 215 1
	mov	r0, r3
	add	sp, sp, #12
.LCFI20:
	@ sp needed
	ldr	pc, [sp], #4
.LFE231:
	.size	drv_ccs811_status_get, .-drv_ccs811_status_get
	.section	.text.drv_ccs811_meas_mode_get,"ax",%progbits
	.align	1
	.global	drv_ccs811_meas_mode_get
	.syntax unified
	.thumb
	.thumb_func
	.fpu fpv4-sp-d16
	.type	drv_ccs811_meas_mode_get, %function
drv_ccs811_meas_mode_get:
.LFB232:
	.loc 2 219 1
	@ args = 0, pretend = 0, frame = 8
	@ frame_needed = 0, uses_anonymous_args = 0
	push	{lr}
.LCFI21:
	sub	sp, sp, #12
.LCFI22:
	str	r0, [sp, #4]
	.loc 2 220 10
	ldr	r1, [sp, #4]
	movs	r0, #1
	bl	reg_get
	mov	r3, r0
	.loc 2 220 8
	cmp	r3, #0
	beq	.L84
	.loc 2 222 16
	movs	r3, #0
	b	.L85
.L84:
	.loc 2 225 12
	movs	r3, #1
.L85:
	.loc 2 226 1
	mov	r0, r3
	add	sp, sp, #12
.LCFI23:
	@ sp needed
	ldr	pc, [sp], #4
.LFE232:
	.size	drv_ccs811_meas_mode_get, .-drv_ccs811_meas_mode_get
	.section	.text.drv_ccs811_meas_mode_modify,"ax",%progbits
	.align	1
	.global	drv_ccs811_meas_mode_modify
	.syntax unified
	.thumb
	.thumb_func
	.fpu fpv4-sp-d16
	.type	drv_ccs811_meas_mode_modify, %function
drv_ccs811_meas_mode_modify:
.LFB233:
	.loc 2 230 1
	@ args = 0, pretend = 0, frame = 8
	@ frame_needed = 0, uses_anonymous_args = 0
	push	{lr}
.LCFI24:
	sub	sp, sp, #12
.LCFI25:
	mov	r3, r0
	mov	r2, r1
	strb	r3, [sp, #7]
	mov	r3, r2
	strb	r3, [sp, #6]
	.loc 2 231 33
	ldrb	r2, [sp, #7]
	ldrb	r3, [sp, #6]
	ands	r3, r3, r2
	uxtb	r3, r3
	.loc 2 231 8
	cmp	r3, #0
	bne	.L87
	.loc 2 232 33
	ldrb	r2, [sp, #7]
	ldrb	r3, [sp, #6]
	orrs	r3, r3, r2
	uxtb	r3, r3
	.loc 2 232 5
	cmp	r3, #0
	beq	.L87
	.loc 2 233 34
	ldrb	r2, [sp, #7]
	ldrb	r3, [sp, #6]
	orrs	r3, r3, r2
	uxtb	r3, r3
	and	r3, r3, #131
	.loc 2 233 5
	cmp	r3, #0
	beq	.L88
.L87:
	.loc 2 235 15
	movs	r3, #2
	b	.L89
.L88:
	.loc 2 238 10
	ldrb	r2, [sp, #6]	@ zero_extendqisi2
	ldrb	r3, [sp, #7]	@ zero_extendqisi2
	mov	r1, r3
	movs	r0, #1
	bl	register_bits_modify
	mov	r3, r0
	.loc 2 238 8
	cmp	r3, #0
	beq	.L90
	.loc 2 240 16
	movs	r3, #0
	b	.L89
.L90:
	.loc 2 243 12
	movs	r3, #1
.L89:
	.loc 2 244 1
	mov	r0, r3
	add	sp, sp, #12
.LCFI26:
	@ sp needed
	ldr	pc, [sp], #4
.LFE233:
	.size	drv_ccs811_meas_mode_modify, .-drv_ccs811_meas_mode_modify
	.section	.text.drv_ccs811_alg_result_data_get,"ax",%progbits
	.align	1
	.global	drv_ccs811_alg_result_data_get
	.syntax unified
	.thumb
	.thumb_func
	.fpu fpv4-sp-d16
	.type	drv_ccs811_alg_result_data_get, %function
drv_ccs811_alg_result_data_get:
.LFB234:
	.loc 2 248 1
	@ args = 0, pretend = 0, frame = 24
	@ frame_needed = 0, uses_anonymous_args = 0
	push	{lr}
.LCFI27:
	sub	sp, sp, #28
.LCFI28:
	mov	r3, r0
	str	r1, [sp]
	strb	r3, [sp, #7]
	.loc 2 249 13
	movs	r3, #0
	strb	r3, [sp, #23]
	.loc 2 252 5
	ldrb	r3, [sp, #7]	@ zero_extendqisi2
	cmp	r3, #4
	bhi	.L112
	adr	r2, .L94
	ldr	pc, [r2, r3, lsl #2]
	.p2align 2
.L94:
	.word	.L97+1
	.word	.L96+1
	.word	.L96+1
	.word	.L95+1
	.word	.L93+1
	.p2align 1
.L97:
	.loc 2 255 20
	movs	r3, #2
	strb	r3, [sp, #23]
	.loc 2 256 13
	b	.L98
.L96:
	.loc 2 259 20
	movs	r3, #4
	strb	r3, [sp, #23]
	.loc 2 260 13
	b	.L98
.L95:
	.loc 2 262 20
	movs	r3, #5
	strb	r3, [sp, #23]
	.loc 2 263 13
	b	.L98
.L93:
	.loc 2 265 20
	movs	r3, #8
	strb	r3, [sp, #23]
	.loc 2 266 13
	b	.L98
.L112:
	.loc 2 268 13
	nop
.L98:
	.loc 2 271 8
	ldrb	r3, [sp, #23]	@ zero_extendqisi2
	cmp	r3, #0
	beq	.L99
	.loc 2 271 24 discriminator 1
	ldr	r3, [sp]
	cmp	r3, #0
	bne	.L100
.L99:
	.loc 2 273 16
	movs	r3, #2
	b	.L111
.L100:
	.loc 2 276 10
	add	r2, sp, #12
	ldrb	r3, [sp, #23]	@ zero_extendqisi2
	mov	r1, r3
	movs	r0, #2
	bl	multi_byte_register_get
	mov	r3, r0
	.loc 2 276 8
	cmp	r3, #0
	beq	.L102
	.loc 2 279 9
	ldrb	r3, [sp, #7]	@ zero_extendqisi2
	cmp	r3, #4
	bhi	.L113
	adr	r2, .L105
	ldr	pc, [r2, r3, lsl #2]
	.p2align 2
.L105:
	.word	.L109+1
	.word	.L108+1
	.word	.L107+1
	.word	.L106+1
	.word	.L104+1
	.p2align 1
.L109:
	.loc 2 282 54
	ldrb	r3, [sp, #12]	@ zero_extendqisi2
	uxth	r2, r3
	.loc 2 282 45
	ldr	r3, [sp]
	strh	r2, [r3]	@ movhi
	.loc 2 283 65
	ldr	r3, [sp]
	ldrh	r3, [r3]
	.loc 2 283 76
	lsls	r3, r3, #8
	uxth	r2, r3
	.loc 2 283 91
	ldrb	r3, [sp, #13]	@ zero_extendqisi2
	uxth	r3, r3
	.loc 2 283 82
	add	r3, r3, r2
	uxth	r2, r3
	.loc 2 283 45
	ldr	r3, [sp]
	strh	r2, [r3]	@ movhi
	.loc 2 284 17
	b	.L110
.L108:
	.loc 2 286 54
	ldrb	r3, [sp, #14]	@ zero_extendqisi2
	uxth	r2, r3
	.loc 2 286 45
	ldr	r3, [sp]
	strh	r2, [r3, #2]	@ movhi
	.loc 2 287 65
	ldr	r3, [sp]
	ldrh	r3, [r3, #2]
	.loc 2 287 76
	lsls	r3, r3, #8
	uxth	r2, r3
	.loc 2 287 91
	ldrb	r3, [sp, #15]	@ zero_extendqisi2
	uxth	r3, r3
	.loc 2 287 82
	add	r3, r3, r2
	uxth	r2, r3
	.loc 2 287 45
	ldr	r3, [sp]
	strh	r2, [r3, #2]	@ movhi
	.loc 2 288 17
	b	.L110
.L107:
	.loc 2 290 54
	ldrb	r3, [sp, #12]	@ zero_extendqisi2
	uxth	r2, r3
	.loc 2 290 45
	ldr	r3, [sp]
	strh	r2, [r3]	@ movhi
	.loc 2 291 65
	ldr	r3, [sp]
	ldrh	r3, [r3]
	.loc 2 291 76
	lsls	r3, r3, #8
	uxth	r2, r3
	.loc 2 291 91
	ldrb	r3, [sp, #13]	@ zero_extendqisi2
	uxth	r3, r3
	.loc 2 291 82
	add	r3, r3, r2
	uxth	r2, r3
	.loc 2 291 45
	ldr	r3, [sp]
	strh	r2, [r3]	@ movhi
	.loc 2 292 54
	ldrb	r3, [sp, #14]	@ zero_extendqisi2
	uxth	r2, r3
	.loc 2 292 45
	ldr	r3, [sp]
	strh	r2, [r3, #2]	@ movhi
	.loc 2 293 65
	ldr	r3, [sp]
	ldrh	r3, [r3, #2]
	.loc 2 293 76
	lsls	r3, r3, #8
	uxth	r2, r3
	.loc 2 293 91
	ldrb	r3, [sp, #15]	@ zero_extendqisi2
	uxth	r3, r3
	.loc 2 293 82
	add	r3, r3, r2
	uxth	r2, r3
	.loc 2 293 45
	ldr	r3, [sp]
	strh	r2, [r3, #2]	@ movhi
	.loc 2 294 17
	b	.L110
.L106:
	.loc 2 296 54
	ldrb	r3, [sp, #12]	@ zero_extendqisi2
	uxth	r2, r3
	.loc 2 296 45
	ldr	r3, [sp]
	strh	r2, [r3]	@ movhi
	.loc 2 297 65
	ldr	r3, [sp]
	ldrh	r3, [r3]
	.loc 2 297 76
	lsls	r3, r3, #8
	uxth	r2, r3
	.loc 2 297 91
	ldrb	r3, [sp, #13]	@ zero_extendqisi2
	uxth	r3, r3
	.loc 2 297 82
	add	r3, r3, r2
	uxth	r2, r3
	.loc 2 297 45
	ldr	r3, [sp]
	strh	r2, [r3]	@ movhi
	.loc 2 298 54
	ldrb	r3, [sp, #14]	@ zero_extendqisi2
	uxth	r2, r3
	.loc 2 298 45
	ldr	r3, [sp]
	strh	r2, [r3, #2]	@ movhi
	.loc 2 299 65
	ldr	r3, [sp]
	ldrh	r3, [r3, #2]
	.loc 2 299 76
	lsls	r3, r3, #8
	uxth	r2, r3
	.loc 2 299 91
	ldrb	r3, [sp, #15]	@ zero_extendqisi2
	uxth	r3, r3
	.loc 2 299 82
	add	r3, r3, r2
	uxth	r2, r3
	.loc 2 299 45
	ldr	r3, [sp]
	strh	r2, [r3, #2]	@ movhi
	.loc 2 300 52
	ldrb	r2, [sp, #16]	@ zero_extendqisi2
	.loc 2 300 43
	ldr	r3, [sp]
	strb	r2, [r3, #4]
	.loc 2 301 17
	b	.L110
.L104:
	.loc 2 303 54
	ldrb	r3, [sp, #12]	@ zero_extendqisi2
	uxth	r2, r3
	.loc 2 303 45
	ldr	r3, [sp]
	strh	r2, [r3]	@ movhi
	.loc 2 304 65
	ldr	r3, [sp]
	ldrh	r3, [r3]
	.loc 2 304 76
	lsls	r3, r3, #8
	uxth	r2, r3
	.loc 2 304 91
	ldrb	r3, [sp, #13]	@ zero_extendqisi2
	uxth	r3, r3
	.loc 2 304 82
	add	r3, r3, r2
	uxth	r2, r3
	.loc 2 304 45
	ldr	r3, [sp]
	strh	r2, [r3]	@ movhi
	.loc 2 305 54
	ldrb	r3, [sp, #14]	@ zero_extendqisi2
	uxth	r2, r3
	.loc 2 305 45
	ldr	r3, [sp]
	strh	r2, [r3, #2]	@ movhi
	.loc 2 306 65
	ldr	r3, [sp]
	ldrh	r3, [r3, #2]
	.loc 2 306 76
	lsls	r3, r3, #8
	uxth	r2, r3
	.loc 2 306 91
	ldrb	r3, [sp, #15]	@ zero_extendqisi2
	uxth	r3, r3
	.loc 2 306 82
	add	r3, r3, r2
	uxth	r2, r3
	.loc 2 306 45
	ldr	r3, [sp]
	strh	r2, [r3, #2]	@ movhi
	.loc 2 307 52
	ldrb	r2, [sp, #16]	@ zero_extendqisi2
	.loc 2 307 43
	ldr	r3, [sp]
	strb	r2, [r3, #4]
	.loc 2 308 52
	ldrb	r2, [sp, #17]	@ zero_extendqisi2
	.loc 2 308 43
	ldr	r3, [sp]
	strb	r2, [r3, #5]
	.loc 2 309 54
	ldrb	r3, [sp, #18]	@ zero_extendqisi2
	uxth	r2, r3
	.loc 2 309 45
	ldr	r3, [sp]
	strh	r2, [r3, #6]	@ movhi
	.loc 2 310 65
	ldr	r3, [sp]
	ldrh	r3, [r3, #6]
	.loc 2 310 76
	lsls	r3, r3, #8
	uxth	r2, r3
	.loc 2 310 91
	ldrb	r3, [sp, #19]	@ zero_extendqisi2
	uxth	r3, r3
	.loc 2 310 82
	add	r3, r3, r2
	uxth	r2, r3
	.loc 2 310 45
	ldr	r3, [sp]
	strh	r2, [r3, #6]	@ movhi
	.loc 2 311 17
	b	.L110
.L113:
	.loc 2 313 17
	nop
.L110:
	.loc 2 315 16
	movs	r3, #0
	b	.L111
.L102:
	.loc 2 318 12
	movs	r3, #1
.L111:
	.loc 2 319 1 discriminator 1
	mov	r0, r3
	add	sp, sp, #28
.LCFI29:
	@ sp needed
	ldr	pc, [sp], #4
.LFE234:
	.size	drv_ccs811_alg_result_data_get, .-drv_ccs811_alg_result_data_get
	.section	.text.drv_ccs811_raw_data_get,"ax",%progbits
	.align	1
	.global	drv_ccs811_raw_data_get
	.syntax unified
	.thumb
	.thumb_func
	.fpu fpv4-sp-d16
	.type	drv_ccs811_raw_data_get, %function
drv_ccs811_raw_data_get:
.LFB235:
	.loc 2 323 1
	@ args = 0, pretend = 0, frame = 16
	@ frame_needed = 1, uses_anonymous_args = 0
	push	{r4, r5, r7, lr}
.LCFI30:
	sub	sp, sp, #16
.LCFI31:
	add	r7, sp, #0
.LCFI32:
	str	r0, [r7, #4]
	.loc 2 323 1
	mov	r3, sp
	mov	r5, r3
	.loc 2 325 13
	ldr	r3, .L119
	ldrb	r3, [r3]	@ zero_extendqisi2
	subs	r3, r3, #1
	str	r3, [r7, #12]
	ldr	r3, .L119
	ldrb	r3, [r3]	@ zero_extendqisi2
	uxtb	r1, r3
	mov	r2, #0
	mov	r3, #0
	mov	r4, #0
	lsls	r4, r2, #3
	orr	r4, r4, r1, lsr #29
	lsls	r3, r1, #3
	ldr	r3, .L119
	ldrb	r3, [r3]	@ zero_extendqisi2
	uxtb	r1, r3
	mov	r2, #0
	mov	r3, #0
	mov	r4, #0
	lsls	r4, r2, #3
	orr	r4, r4, r1, lsr #29
	lsls	r3, r1, #3
	ldr	r3, .L119
	ldrb	r3, [r3]	@ zero_extendqisi2
	adds	r3, r3, #7
	lsrs	r3, r3, #3
	lsls	r3, r3, #3
	sub	sp, sp, r3
	mov	r3, sp
	adds	r3, r3, #0
	str	r3, [r7, #8]
	.loc 2 327 8
	ldr	r3, [r7, #4]
	cmp	r3, #0
	bne	.L115
	.loc 2 329 16
	movs	r3, #2
	b	.L116
.L115:
	.loc 2 332 10
	ldr	r3, .L119
	ldrb	r3, [r3]	@ zero_extendqisi2
	ldr	r2, [r7, #8]
	mov	r1, r3
	movs	r0, #3
	bl	multi_byte_register_get
	mov	r3, r0
	.loc 2 332 8
	cmp	r3, #0
	beq	.L117
	.loc 2 334 31
	ldr	r3, [r7, #8]
	ldrb	r3, [r3]	@ zero_extendqisi2
	uxth	r3, r3
	.loc 2 334 35
	lsls	r3, r3, #8
	uxth	r2, r3
	.loc 2 334 50
	ldr	r3, [r7, #8]
	ldrb	r3, [r3, #1]	@ zero_extendqisi2
	uxth	r3, r3
	.loc 2 334 41
	add	r3, r3, r2
	uxth	r2, r3
	.loc 2 334 21
	ldr	r3, [r7, #4]
	strh	r2, [r3]	@ movhi
	.loc 2 336 16
	movs	r3, #0
	b	.L116
.L117:
	.loc 2 339 12
	movs	r3, #1
.L116:
	mov	sp, r5
	.loc 2 340 1
	mov	r0, r3
	adds	r7, r7, #16
.LCFI33:
	mov	sp, r7
.LCFI34:
	@ sp needed
	pop	{r4, r5, r7, pc}
.L120:
	.align	2
.L119:
	.word	RX_LENGTH.8705
.LFE235:
	.size	drv_ccs811_raw_data_get, .-drv_ccs811_raw_data_get
	.section	.text.drv_ccs811_thresholds_get,"ax",%progbits
	.align	1
	.global	drv_ccs811_thresholds_get
	.syntax unified
	.thumb
	.thumb_func
	.fpu fpv4-sp-d16
	.type	drv_ccs811_thresholds_get, %function
drv_ccs811_thresholds_get:
.LFB236:
	.loc 2 344 1
	@ args = 0, pretend = 0, frame = 24
	@ frame_needed = 1, uses_anonymous_args = 0
	push	{r4, r5, r7, lr}
.LCFI35:
	sub	sp, sp, #24
.LCFI36:
	add	r7, sp, #0
.LCFI37:
	str	r0, [r7, #12]
	str	r1, [r7, #8]
	str	r2, [r7, #4]
	.loc 2 344 1
	mov	r3, sp
	mov	r5, r3
	.loc 2 346 13
	ldr	r3, .L127
	ldrb	r3, [r3]	@ zero_extendqisi2
	subs	r3, r3, #1
	str	r3, [r7, #20]
	ldr	r3, .L127
	ldrb	r3, [r3]	@ zero_extendqisi2
	uxtb	r1, r3
	mov	r2, #0
	mov	r3, #0
	mov	r4, #0
	lsls	r4, r2, #3
	orr	r4, r4, r1, lsr #29
	lsls	r3, r1, #3
	ldr	r3, .L127
	ldrb	r3, [r3]	@ zero_extendqisi2
	uxtb	r1, r3
	mov	r2, #0
	mov	r3, #0
	mov	r4, #0
	lsls	r4, r2, #3
	orr	r4, r4, r1, lsr #29
	lsls	r3, r1, #3
	ldr	r3, .L127
	ldrb	r3, [r3]	@ zero_extendqisi2
	adds	r3, r3, #7
	lsrs	r3, r3, #3
	lsls	r3, r3, #3
	sub	sp, sp, r3
	mov	r3, sp
	adds	r3, r3, #0
	str	r3, [r7, #16]
	.loc 2 348 8
	ldr	r3, [r7, #12]
	cmp	r3, #0
	beq	.L122
	.loc 2 348 36 discriminator 1
	ldr	r3, [r7, #8]
	cmp	r3, #0
	beq	.L122
	.loc 2 348 66 discriminator 2
	ldr	r3, [r7, #4]
	cmp	r3, #0
	bne	.L123
.L122:
	.loc 2 350 16
	movs	r3, #2
	b	.L124
.L123:
	.loc 2 353 10
	ldr	r3, .L127
	ldrb	r3, [r3]	@ zero_extendqisi2
	ldr	r2, [r7, #16]
	mov	r1, r3
	movs	r0, #16
	bl	multi_byte_register_get
	mov	r3, r0
	.loc 2 353 8
	cmp	r3, #0
	beq	.L125
	.loc 2 355 37
	ldr	r3, [r7, #16]
	ldrb	r3, [r3]	@ zero_extendqisi2
	uxth	r3, r3
	.loc 2 355 41
	lsls	r3, r3, #8
	uxth	r2, r3
	.loc 2 355 56
	ldr	r3, [r7, #16]
	ldrb	r3, [r3, #1]	@ zero_extendqisi2
	uxth	r3, r3
	.loc 2 355 47
	add	r3, r3, r2
	uxth	r2, r3
	.loc 2 355 27
	ldr	r3, [r7, #12]
	strh	r2, [r3]	@ movhi
	.loc 2 356 37
	ldr	r3, [r7, #16]
	ldrb	r3, [r3, #2]	@ zero_extendqisi2
	uxth	r3, r3
	.loc 2 356 41
	lsls	r3, r3, #8
	uxth	r2, r3
	.loc 2 356 56
	ldr	r3, [r7, #16]
	ldrb	r3, [r3, #3]	@ zero_extendqisi2
	uxth	r3, r3
	.loc 2 356 47
	add	r3, r3, r2
	uxth	r2, r3
	.loc 2 356 27
	ldr	r3, [r7, #8]
	strh	r2, [r3]	@ movhi
	.loc 2 357 56
	ldr	r3, [r7, #16]
	ldrb	r2, [r3, #4]	@ zero_extendqisi2
	.loc 2 357 27
	ldr	r3, [r7, #4]
	strb	r2, [r3]
	.loc 2 359 16
	movs	r3, #0
	b	.L124
.L125:
	.loc 2 362 12
	movs	r3, #1
.L124:
	mov	sp, r5
	.loc 2 363 1
	mov	r0, r3
	adds	r7, r7, #24
.LCFI38:
	mov	sp, r7
.LCFI39:
	@ sp needed
	pop	{r4, r5, r7, pc}
.L128:
	.align	2
.L127:
	.word	RX_LENGTH.8712
.LFE236:
	.size	drv_ccs811_thresholds_get, .-drv_ccs811_thresholds_get
	.section	.text.drv_ccs811_thresholds_set,"ax",%progbits
	.align	1
	.global	drv_ccs811_thresholds_set
	.syntax unified
	.thumb
	.thumb_func
	.fpu fpv4-sp-d16
	.type	drv_ccs811_thresholds_set, %function
drv_ccs811_thresholds_set:
.LFB237:
	.loc 2 367 1
	@ args = 0, pretend = 0, frame = 16
	@ frame_needed = 1, uses_anonymous_args = 0
	push	{r4, r5, r7, lr}
.LCFI40:
	sub	sp, sp, #16
.LCFI41:
	add	r7, sp, #0
.LCFI42:
	mov	r3, r0
	strh	r3, [r7, #6]	@ movhi
	mov	r3, r1	@ movhi
	strh	r3, [r7, #4]	@ movhi
	mov	r3, r2
	strb	r3, [r7, #3]
	.loc 2 367 1
	mov	r3, sp
	mov	r5, r3
	.loc 2 369 13
	ldr	r3, .L133
	ldrb	r3, [r3]	@ zero_extendqisi2
	subs	r3, r3, #1
	str	r3, [r7, #12]
	ldr	r3, .L133
	ldrb	r3, [r3]	@ zero_extendqisi2
	uxtb	r1, r3
	mov	r2, #0
	mov	r3, #0
	mov	r4, #0
	lsls	r4, r2, #3
	orr	r4, r4, r1, lsr #29
	lsls	r3, r1, #3
	ldr	r3, .L133
	ldrb	r3, [r3]	@ zero_extendqisi2
	uxtb	r1, r3
	mov	r2, #0
	mov	r3, #0
	mov	r4, #0
	lsls	r4, r2, #3
	orr	r4, r4, r1, lsr #29
	lsls	r3, r1, #3
	ldr	r3, .L133
	ldrb	r3, [r3]	@ zero_extendqisi2
	adds	r3, r3, #7
	lsrs	r3, r3, #3
	lsls	r3, r3, #3
	sub	sp, sp, r3
	mov	r3, sp
	adds	r3, r3, #0
	str	r3, [r7, #8]
	.loc 2 371 22
	ldr	r3, [r7, #8]
	movs	r2, #16
	strb	r2, [r3]
	.loc 2 372 22
	ldrh	r3, [r7, #6]
	lsrs	r3, r3, #8
	uxth	r3, r3
	uxtb	r2, r3
	ldr	r3, [r7, #8]
	strb	r2, [r3, #1]
	.loc 2 373 22
	ldrh	r3, [r7, #6]	@ movhi
	uxtb	r2, r3
	ldr	r3, [r7, #8]
	strb	r2, [r3, #2]
	.loc 2 374 22
	ldrh	r3, [r7, #4]
	lsrs	r3, r3, #8
	uxth	r3, r3
	uxtb	r2, r3
	ldr	r3, [r7, #8]
	strb	r2, [r3, #3]
	.loc 2 375 22
	ldrh	r3, [r7, #4]	@ movhi
	uxtb	r2, r3
	ldr	r3, [r7, #8]
	strb	r2, [r3, #4]
	.loc 2 376 22
	ldr	r3, [r7, #8]
	ldrb	r2, [r7, #3]
	strb	r2, [r3, #5]
	.loc 2 378 10
	ldr	r3, .L133
	ldrb	r3, [r3]	@ zero_extendqisi2
	ldr	r2, [r7, #8]
	mov	r1, r2
	mov	r0, r3
	bl	multi_byte_register_set
	mov	r3, r0
	.loc 2 378 8
	cmp	r3, #0
	beq	.L130
	.loc 2 380 16
	movs	r3, #0
	b	.L131
.L130:
	.loc 2 383 12
	movs	r3, #1
.L131:
	mov	sp, r5
	.loc 2 384 1
	mov	r0, r3
	adds	r7, r7, #16
.LCFI43:
	mov	sp, r7
.LCFI44:
	@ sp needed
	pop	{r4, r5, r7, pc}
.L134:
	.align	2
.L133:
	.word	TX_LENGTH.8719
.LFE237:
	.size	drv_ccs811_thresholds_set, .-drv_ccs811_thresholds_set
	.section	.text.drv_ccs811_ntc_get,"ax",%progbits
	.align	1
	.global	drv_ccs811_ntc_get
	.syntax unified
	.thumb
	.thumb_func
	.fpu fpv4-sp-d16
	.type	drv_ccs811_ntc_get, %function
drv_ccs811_ntc_get:
.LFB238:
	.loc 2 388 1
	@ args = 0, pretend = 0, frame = 16
	@ frame_needed = 1, uses_anonymous_args = 0
	push	{r4, r5, r7, lr}
.LCFI45:
	sub	sp, sp, #16
.LCFI46:
	add	r7, sp, #0
.LCFI47:
	str	r0, [r7, #4]
	str	r1, [r7]
	.loc 2 388 1
	mov	r3, sp
	mov	r5, r3
	.loc 2 390 13
	ldr	r3, .L141
	ldrb	r3, [r3]	@ zero_extendqisi2
	subs	r3, r3, #1
	str	r3, [r7, #12]
	ldr	r3, .L141
	ldrb	r3, [r3]	@ zero_extendqisi2
	uxtb	r1, r3
	mov	r2, #0
	mov	r3, #0
	mov	r4, #0
	lsls	r4, r2, #3
	orr	r4, r4, r1, lsr #29
	lsls	r3, r1, #3
	ldr	r3, .L141
	ldrb	r3, [r3]	@ zero_extendqisi2
	uxtb	r1, r3
	mov	r2, #0
	mov	r3, #0
	mov	r4, #0
	lsls	r4, r2, #3
	orr	r4, r4, r1, lsr #29
	lsls	r3, r1, #3
	ldr	r3, .L141
	ldrb	r3, [r3]	@ zero_extendqisi2
	adds	r3, r3, #7
	lsrs	r3, r3, #3
	lsls	r3, r3, #3
	sub	sp, sp, r3
	mov	r3, sp
	adds	r3, r3, #0
	str	r3, [r7, #8]
	.loc 2 392 8
	ldr	r3, [r7, #4]
	cmp	r3, #0
	beq	.L136
	.loc 2 392 31 discriminator 1
	ldr	r3, [r7]
	cmp	r3, #0
	bne	.L137
.L136:
	.loc 2 394 16
	movs	r3, #2
	b	.L138
.L137:
	.loc 2 397 10
	ldr	r3, .L141
	ldrb	r3, [r3]	@ zero_extendqisi2
	ldr	r2, [r7, #8]
	mov	r1, r3
	movs	r0, #6
	bl	multi_byte_register_get
	mov	r3, r0
	.loc 2 397 8
	cmp	r3, #0
	beq	.L139
	.loc 2 399 31
	ldr	r3, [r7, #8]
	ldrb	r3, [r3]	@ zero_extendqisi2
	uxth	r3, r3
	.loc 2 399 35
	lsls	r3, r3, #8
	uxth	r2, r3
	.loc 2 399 50
	ldr	r3, [r7, #8]
	ldrb	r3, [r3, #1]	@ zero_extendqisi2
	uxth	r3, r3
	.loc 2 399 41
	add	r3, r3, r2
	uxth	r2, r3
	.loc 2 399 21
	ldr	r3, [r7, #4]
	strh	r2, [r3]	@ movhi
	.loc 2 400 31
	ldr	r3, [r7, #8]
	ldrb	r3, [r3, #2]	@ zero_extendqisi2
	uxth	r3, r3
	.loc 2 400 35
	lsls	r3, r3, #8
	uxth	r2, r3
	.loc 2 400 50
	ldr	r3, [r7, #8]
	ldrb	r3, [r3, #3]	@ zero_extendqisi2
	uxth	r3, r3
	.loc 2 400 41
	add	r3, r3, r2
	uxth	r2, r3
	.loc 2 400 21
	ldr	r3, [r7]
	strh	r2, [r3]	@ movhi
	.loc 2 402 16
	movs	r3, #0
	b	.L138
.L139:
	.loc 2 405 12
	movs	r3, #1
.L138:
	mov	sp, r5
	.loc 2 406 1
	mov	r0, r3
	adds	r7, r7, #16
.LCFI48:
	mov	sp, r7
.LCFI49:
	@ sp needed
	pop	{r4, r5, r7, pc}
.L142:
	.align	2
.L141:
	.word	RX_LENGTH.8725
.LFE238:
	.size	drv_ccs811_ntc_get, .-drv_ccs811_ntc_get
	.section	.text.drv_ccs811_env_data_set,"ax",%progbits
	.align	1
	.global	drv_ccs811_env_data_set
	.syntax unified
	.thumb
	.thumb_func
	.fpu fpv4-sp-d16
	.type	drv_ccs811_env_data_set, %function
drv_ccs811_env_data_set:
.LFB239:
	.loc 2 410 1
	@ args = 0, pretend = 0, frame = 16
	@ frame_needed = 1, uses_anonymous_args = 0
	push	{r4, r5, r7, lr}
.LCFI50:
	sub	sp, sp, #16
.LCFI51:
	add	r7, sp, #0
.LCFI52:
	mov	r3, r0
	str	r1, [r7]
	strh	r3, [r7, #6]	@ movhi
	.loc 2 410 1
	mov	r3, sp
	mov	r5, r3
	.loc 2 412 13
	ldr	r3, .L155
	ldrb	r3, [r3]	@ zero_extendqisi2
	subs	r3, r3, #1
	str	r3, [r7, #12]
	ldr	r3, .L155
	ldrb	r3, [r3]	@ zero_extendqisi2
	uxtb	r1, r3
	mov	r2, #0
	mov	r3, #0
	mov	r4, #0
	lsls	r4, r2, #3
	orr	r4, r4, r1, lsr #29
	lsls	r3, r1, #3
	ldr	r3, .L155
	ldrb	r3, [r3]	@ zero_extendqisi2
	uxtb	r1, r3
	mov	r2, #0
	mov	r3, #0
	mov	r4, #0
	lsls	r4, r2, #3
	orr	r4, r4, r1, lsr #29
	lsls	r3, r1, #3
	ldr	r3, .L155
	ldrb	r3, [r3]	@ zero_extendqisi2
	adds	r3, r3, #7
	lsrs	r3, r3, #3
	lsls	r3, r3, #3
	sub	sp, sp, r3
	mov	r3, sp
	adds	r3, r3, #0
	str	r3, [r7, #8]
	.loc 2 413 16
	ldr	r3, [r7, #8]
	movs	r2, #5
	strb	r2, [r3]
	.loc 2 416 8
	ldrh	r3, [r7, #6]
	cmp	r3, #1000
	bhi	.L144
	.loc 2 416 36 discriminator 1
	ldr	r3, [r7]
	ldr	r2, .L155+4
	cmp	r3, r2
	blt	.L144
	.loc 2 416 73 discriminator 2
	ldr	r3, [r7]
	movw	r2, #50000
	cmp	r3, r2
	ble	.L145
.L144:
	.loc 2 418 16
	movs	r3, #2
	b	.L146
.L145:
	.loc 2 424 24
	ldrh	r2, [r7, #6]
	ldr	r3, .L155+8
	umull	r1, r3, r3, r2
	lsrs	r1, r3, #3
	mov	r3, r1
	lsls	r3, r3, #2
	add	r3, r3, r1
	lsls	r3, r3, #1
	subs	r3, r2, r3
	uxth	r3, r3
	.loc 2 424 8
	cmp	r3, #7
	bls	.L147
	.loc 2 426 38
	ldrh	r3, [r7, #6]
	ldr	r2, .L155+8
	umull	r2, r3, r2, r3
	lsrs	r3, r3, #3
	uxth	r3, r3
	uxtb	r3, r3
	adds	r3, r3, #1
	uxtb	r3, r3
	.loc 2 426 43
	lsls	r3, r3, #1
	uxtb	r2, r3
	.loc 2 426 20
	ldr	r3, [r7, #8]
	strb	r2, [r3, #1]
	b	.L148
.L147:
	.loc 2 430 40
	ldrh	r3, [r7, #6]
	ldr	r2, .L155+8
	umull	r2, r3, r2, r3
	lsrs	r3, r3, #3
	uxth	r3, r3
	uxtb	r3, r3
	lsls	r3, r3, #1
	uxtb	r2, r3
	.loc 2 430 20
	ldr	r3, [r7, #8]
	strb	r2, [r3, #1]
.L148:
	.loc 2 433 25
	ldrh	r2, [r7, #6]
	ldr	r3, .L155+8
	umull	r1, r3, r3, r2
	lsrs	r1, r3, #3
	mov	r3, r1
	lsls	r3, r3, #2
	add	r3, r3, r1
	lsls	r3, r3, #1
	subs	r3, r2, r3
	uxth	r3, r3
	.loc 2 433 8
	cmp	r3, #2
	bls	.L149
	.loc 2 433 49 discriminator 1
	ldrh	r2, [r7, #6]
	ldr	r3, .L155+8
	umull	r1, r3, r3, r2
	lsrs	r1, r3, #3
	mov	r3, r1
	lsls	r3, r3, #2
	add	r3, r3, r1
	lsls	r3, r3, #1
	subs	r3, r2, r3
	uxth	r3, r3
	.loc 2 433 30 discriminator 1
	cmp	r3, #7
	bhi	.L149
	.loc 2 435 20
	ldr	r3, [r7, #8]
	ldrb	r3, [r3, #1]	@ zero_extendqisi2
	orr	r3, r3, #1
	uxtb	r2, r3
	ldr	r3, [r7, #8]
	strb	r2, [r3, #1]
.L149:
	.loc 2 442 16
	ldr	r3, [r7, #8]
	movs	r2, #0
	strb	r2, [r3, #2]
	.loc 2 444 15
	ldr	r3, [r7]
	add	r3, r3, #24960
	adds	r3, r3, #40
	str	r3, [r7]
	.loc 2 446 20
	ldr	r2, [r7]
	ldr	r3, .L155+12
	smull	r1, r3, r3, r2
	asrs	r1, r3, #6
	asrs	r3, r2, #31
	subs	r3, r1, r3
	mov	r1, #1000
	mul	r3, r1, r3
	subs	r3, r2, r3
	.loc 2 446 8
	movw	r2, #749
	cmp	r3, r2
	ble	.L150
	.loc 2 448 34
	ldr	r3, [r7]
	ldr	r2, .L155+12
	smull	r1, r2, r2, r3
	asrs	r2, r2, #6
	asrs	r3, r3, #31
	subs	r3, r2, r3
	.loc 2 448 42
	uxtb	r3, r3
	adds	r3, r3, #1
	uxtb	r3, r3
	.loc 2 448 47
	lsls	r3, r3, #1
	uxtb	r2, r3
	.loc 2 448 20
	ldr	r3, [r7, #8]
	strb	r2, [r3, #3]
	b	.L151
.L150:
	.loc 2 452 33
	ldr	r3, [r7]
	ldr	r2, .L155+12
	smull	r1, r2, r2, r3
	asrs	r2, r2, #6
	asrs	r3, r3, #31
	subs	r3, r2, r3
	.loc 2 452 41
	uxtb	r3, r3
	lsls	r3, r3, #1
	uxtb	r2, r3
	.loc 2 452 20
	ldr	r3, [r7, #8]
	strb	r2, [r3, #3]
.L151:
	.loc 2 455 21
	ldr	r2, [r7]
	ldr	r3, .L155+12
	smull	r1, r3, r3, r2
	asrs	r1, r3, #6
	asrs	r3, r2, #31
	subs	r3, r1, r3
	mov	r1, #1000
	mul	r3, r1, r3
	subs	r3, r2, r3
	.loc 2 455 8
	cmp	r3, #249
	ble	.L152
	.loc 2 455 52 discriminator 1
	ldr	r2, [r7]
	ldr	r3, .L155+12
	smull	r1, r3, r3, r2
	asrs	r1, r3, #6
	asrs	r3, r2, #31
	subs	r3, r1, r3
	mov	r1, #1000
	mul	r3, r1, r3
	subs	r3, r2, r3
	.loc 2 455 37 discriminator 1
	movw	r2, #749
	cmp	r3, r2
	bgt	.L152
	.loc 2 457 20
	ldr	r3, [r7, #8]
	ldrb	r3, [r3, #3]	@ zero_extendqisi2
	orr	r3, r3, #1
	uxtb	r2, r3
	ldr	r3, [r7, #8]
	strb	r2, [r3, #3]
.L152:
	.loc 2 464 16
	ldr	r3, [r7, #8]
	movs	r2, #0
	strb	r2, [r3, #4]
	.loc 2 466 10
	ldr	r3, .L155
	ldrb	r3, [r3]	@ zero_extendqisi2
	ldr	r2, [r7, #8]
	mov	r1, r2
	mov	r0, r3
	bl	multi_byte_register_set
	mov	r3, r0
	.loc 2 466 8
	cmp	r3, #0
	beq	.L153
	.loc 2 468 16
	movs	r3, #0
	b	.L146
.L153:
	.loc 2 471 12
	movs	r3, #1
.L146:
	mov	sp, r5
	.loc 2 472 1
	mov	r0, r3
	adds	r7, r7, #16
.LCFI53:
	mov	sp, r7
.LCFI54:
	@ sp needed
	pop	{r4, r5, r7, pc}
.L156:
	.align	2
.L155:
	.word	TX_LENGTH.8731
	.word	-25000
	.word	-858993459
	.word	274877907
.LFE239:
	.size	drv_ccs811_env_data_set, .-drv_ccs811_env_data_set
	.section	.text.drv_ccs811_baseline_get,"ax",%progbits
	.align	1
	.global	drv_ccs811_baseline_get
	.syntax unified
	.thumb
	.thumb_func
	.fpu fpv4-sp-d16
	.type	drv_ccs811_baseline_get, %function
drv_ccs811_baseline_get:
.LFB240:
	.loc 2 476 1
	@ args = 0, pretend = 0, frame = 16
	@ frame_needed = 1, uses_anonymous_args = 0
	push	{r4, r5, r7, lr}
.LCFI55:
	sub	sp, sp, #16
.LCFI56:
	add	r7, sp, #0
.LCFI57:
	str	r0, [r7, #4]
	.loc 2 476 1
	mov	r3, sp
	mov	r5, r3
	.loc 2 478 13
	ldr	r3, .L162
	ldrb	r3, [r3]	@ zero_extendqisi2
	subs	r3, r3, #1
	str	r3, [r7, #12]
	ldr	r3, .L162
	ldrb	r3, [r3]	@ zero_extendqisi2
	uxtb	r1, r3
	mov	r2, #0
	mov	r3, #0
	mov	r4, #0
	lsls	r4, r2, #3
	orr	r4, r4, r1, lsr #29
	lsls	r3, r1, #3
	ldr	r3, .L162
	ldrb	r3, [r3]	@ zero_extendqisi2
	uxtb	r1, r3
	mov	r2, #0
	mov	r3, #0
	mov	r4, #0
	lsls	r4, r2, #3
	orr	r4, r4, r1, lsr #29
	lsls	r3, r1, #3
	ldr	r3, .L162
	ldrb	r3, [r3]	@ zero_extendqisi2
	adds	r3, r3, #7
	lsrs	r3, r3, #3
	lsls	r3, r3, #3
	sub	sp, sp, r3
	mov	r3, sp
	adds	r3, r3, #0
	str	r3, [r7, #8]
	.loc 2 480 8
	ldr	r3, [r7, #4]
	cmp	r3, #0
	bne	.L158
	.loc 2 482 16
	movs	r3, #2
	b	.L159
.L158:
	.loc 2 485 10
	ldr	r3, .L162
	ldrb	r3, [r3]	@ zero_extendqisi2
	ldr	r2, [r7, #8]
	mov	r1, r3
	movs	r0, #17
	bl	multi_byte_register_get
	mov	r3, r0
	.loc 2 485 8
	cmp	r3, #0
	beq	.L160
	.loc 2 487 31
	ldr	r3, [r7, #8]
	ldrb	r3, [r3, #1]	@ zero_extendqisi2
	uxth	r3, r3
	.loc 2 487 35
	lsls	r3, r3, #8
	uxth	r2, r3
	.loc 2 487 50
	ldr	r3, [r7, #8]
	ldrb	r3, [r3]	@ zero_extendqisi2
	uxth	r3, r3
	.loc 2 487 41
	add	r3, r3, r2
	uxth	r2, r3
	.loc 2 487 21
	ldr	r3, [r7, #4]
	strh	r2, [r3]	@ movhi
	.loc 2 489 16
	movs	r3, #0
	b	.L159
.L160:
	.loc 2 492 12
	movs	r3, #1
.L159:
	mov	sp, r5
	.loc 2 493 1
	mov	r0, r3
	adds	r7, r7, #16
.LCFI58:
	mov	sp, r7
.LCFI59:
	@ sp needed
	pop	{r4, r5, r7, pc}
.L163:
	.align	2
.L162:
	.word	RX_LENGTH.8736
.LFE240:
	.size	drv_ccs811_baseline_get, .-drv_ccs811_baseline_get
	.section	.text.drv_ccs811_baseline_set,"ax",%progbits
	.align	1
	.global	drv_ccs811_baseline_set
	.syntax unified
	.thumb
	.thumb_func
	.fpu fpv4-sp-d16
	.type	drv_ccs811_baseline_set, %function
drv_ccs811_baseline_set:
.LFB241:
	.loc 2 497 1
	@ args = 0, pretend = 0, frame = 16
	@ frame_needed = 1, uses_anonymous_args = 0
	push	{r4, r5, r7, lr}
.LCFI60:
	sub	sp, sp, #16
.LCFI61:
	add	r7, sp, #0
.LCFI62:
	mov	r3, r0
	strh	r3, [r7, #6]	@ movhi
	.loc 2 497 1
	mov	r3, sp
	mov	r5, r3
	.loc 2 499 13
	ldr	r3, .L168
	ldrb	r3, [r3]	@ zero_extendqisi2
	subs	r3, r3, #1
	str	r3, [r7, #12]
	ldr	r3, .L168
	ldrb	r3, [r3]	@ zero_extendqisi2
	uxtb	r1, r3
	mov	r2, #0
	mov	r3, #0
	mov	r4, #0
	lsls	r4, r2, #3
	orr	r4, r4, r1, lsr #29
	lsls	r3, r1, #3
	ldr	r3, .L168
	ldrb	r3, [r3]	@ zero_extendqisi2
	uxtb	r1, r3
	mov	r2, #0
	mov	r3, #0
	mov	r4, #0
	lsls	r4, r2, #3
	orr	r4, r4, r1, lsr #29
	lsls	r3, r1, #3
	ldr	r3, .L168
	ldrb	r3, [r3]	@ zero_extendqisi2
	adds	r3, r3, #7
	lsrs	r3, r3, #3
	lsls	r3, r3, #3
	sub	sp, sp, r3
	mov	r3, sp
	adds	r3, r3, #0
	str	r3, [r7, #8]
	.loc 2 501 16
	ldr	r3, [r7, #8]
	movs	r2, #17
	strb	r2, [r3]
	.loc 2 502 16
	ldrh	r3, [r7, #6]	@ movhi
	uxtb	r2, r3
	ldr	r3, [r7, #8]
	strb	r2, [r3, #1]
	.loc 2 503 16
	ldrh	r3, [r7, #6]
	lsrs	r3, r3, #8
	uxth	r3, r3
	uxtb	r2, r3
	ldr	r3, [r7, #8]
	strb	r2, [r3, #2]
	.loc 2 505 10
	ldr	r3, .L168
	ldrb	r3, [r3]	@ zero_extendqisi2
	ldr	r2, [r7, #8]
	mov	r1, r2
	mov	r0, r3
	bl	multi_byte_register_set
	mov	r3, r0
	.loc 2 505 8
	cmp	r3, #0
	beq	.L165
	.loc 2 507 16
	movs	r3, #0
	b	.L166
.L165:
	.loc 2 510 12
	movs	r3, #1
.L166:
	mov	sp, r5
	.loc 2 511 1
	mov	r0, r3
	adds	r7, r7, #16
.LCFI63:
	mov	sp, r7
.LCFI64:
	@ sp needed
	pop	{r4, r5, r7, pc}
.L169:
	.align	2
.L168:
	.word	TX_LENGTH.8741
.LFE241:
	.size	drv_ccs811_baseline_set, .-drv_ccs811_baseline_set
	.section	.text.drv_ccs811_hw_id_get,"ax",%progbits
	.align	1
	.global	drv_ccs811_hw_id_get
	.syntax unified
	.thumb
	.thumb_func
	.fpu fpv4-sp-d16
	.type	drv_ccs811_hw_id_get, %function
drv_ccs811_hw_id_get:
.LFB242:
	.loc 2 515 1
	@ args = 0, pretend = 0, frame = 8
	@ frame_needed = 0, uses_anonymous_args = 0
	push	{lr}
.LCFI65:
	sub	sp, sp, #12
.LCFI66:
	str	r0, [sp, #4]
	.loc 2 516 8
	ldr	r3, [sp, #4]
	cmp	r3, #0
	bne	.L171
	.loc 2 518 16
	movs	r3, #2
	b	.L172
.L171:
	.loc 2 521 9
	ldr	r1, [sp, #4]
	movs	r0, #32
	bl	reg_get
	mov	r3, r0
	.loc 2 521 8
	cmp	r3, #0
	beq	.L173
	.loc 2 523 16
	movs	r3, #0
	b	.L172
.L173:
	.loc 2 526 12
	movs	r3, #1
.L172:
	.loc 2 527 1
	mov	r0, r3
	add	sp, sp, #12
.LCFI67:
	@ sp needed
	ldr	pc, [sp], #4
.LFE242:
	.size	drv_ccs811_hw_id_get, .-drv_ccs811_hw_id_get
	.section	.text.drv_ccs811_hw_version_get,"ax",%progbits
	.align	1
	.global	drv_ccs811_hw_version_get
	.syntax unified
	.thumb
	.thumb_func
	.fpu fpv4-sp-d16
	.type	drv_ccs811_hw_version_get, %function
drv_ccs811_hw_version_get:
.LFB243:
	.loc 2 531 1
	@ args = 0, pretend = 0, frame = 8
	@ frame_needed = 0, uses_anonymous_args = 0
	push	{lr}
.LCFI68:
	sub	sp, sp, #12
.LCFI69:
	str	r0, [sp, #4]
	.loc 2 532 8
	ldr	r3, [sp, #4]
	cmp	r3, #0
	bne	.L175
	.loc 2 534 16
	movs	r3, #2
	b	.L176
.L175:
	.loc 2 537 9
	ldr	r1, [sp, #4]
	movs	r0, #33
	bl	reg_get
	mov	r3, r0
	.loc 2 537 8
	cmp	r3, #0
	beq	.L177
	.loc 2 539 16
	movs	r3, #0
	b	.L176
.L177:
	.loc 2 542 12
	movs	r3, #1
.L176:
	.loc 2 543 1
	mov	r0, r3
	add	sp, sp, #12
.LCFI70:
	@ sp needed
	ldr	pc, [sp], #4
.LFE243:
	.size	drv_ccs811_hw_version_get, .-drv_ccs811_hw_version_get
	.section	.text.drv_ccs811_fw_boot_version_get,"ax",%progbits
	.align	1
	.global	drv_ccs811_fw_boot_version_get
	.syntax unified
	.thumb
	.thumb_func
	.fpu fpv4-sp-d16
	.type	drv_ccs811_fw_boot_version_get, %function
drv_ccs811_fw_boot_version_get:
.LFB244:
	.loc 2 547 1
	@ args = 0, pretend = 0, frame = 16
	@ frame_needed = 1, uses_anonymous_args = 0
	push	{r4, r5, r7, lr}
.LCFI71:
	sub	sp, sp, #16
.LCFI72:
	add	r7, sp, #0
.LCFI73:
	str	r0, [r7, #4]
	.loc 2 547 1
	mov	r3, sp
	mov	r5, r3
	.loc 2 549 12
	ldr	r3, .L183
	ldrb	r3, [r3]	@ zero_extendqisi2
	subs	r3, r3, #1
	str	r3, [r7, #12]
	ldr	r3, .L183
	ldrb	r3, [r3]	@ zero_extendqisi2
	uxtb	r1, r3
	mov	r2, #0
	mov	r3, #0
	mov	r4, #0
	lsls	r4, r2, #3
	orr	r4, r4, r1, lsr #29
	lsls	r3, r1, #3
	ldr	r3, .L183
	ldrb	r3, [r3]	@ zero_extendqisi2
	uxtb	r1, r3
	mov	r2, #0
	mov	r3, #0
	mov	r4, #0
	lsls	r4, r2, #3
	orr	r4, r4, r1, lsr #29
	lsls	r3, r1, #3
	ldr	r3, .L183
	ldrb	r3, [r3]	@ zero_extendqisi2
	adds	r3, r3, #7
	lsrs	r3, r3, #3
	lsls	r3, r3, #3
	sub	sp, sp, r3
	mov	r3, sp
	adds	r3, r3, #0
	str	r3, [r7, #8]
	.loc 2 551 7
	ldr	r3, [r7, #4]
	cmp	r3, #0
	bne	.L179
	.loc 2 553 15
	movs	r3, #2
	b	.L180
.L179:
	.loc 2 556 8
	ldr	r3, .L183
	ldrb	r3, [r3]	@ zero_extendqisi2
	ldr	r2, [r7, #8]
	mov	r1, r3
	movs	r0, #35
	bl	multi_byte_register_get
	mov	r3, r0
	.loc 2 556 7
	cmp	r3, #0
	beq	.L181
	.loc 2 558 37
	ldr	r3, [r7, #8]
	ldrb	r3, [r3]	@ zero_extendqisi2
	uxth	r3, r3
	.loc 2 558 41
	lsls	r3, r3, #8
	uxth	r2, r3
	.loc 2 558 56
	ldr	r3, [r7, #8]
	ldrb	r3, [r3, #1]	@ zero_extendqisi2
	uxth	r3, r3
	.loc 2 558 47
	add	r3, r3, r2
	uxth	r2, r3
	.loc 2 558 27
	ldr	r3, [r7, #4]
	strh	r2, [r3]	@ movhi
	.loc 2 559 15
	movs	r3, #0
	b	.L180
.L181:
	.loc 2 562 12
	movs	r3, #1
.L180:
	mov	sp, r5
	.loc 2 563 1
	mov	r0, r3
	adds	r7, r7, #16
.LCFI74:
	mov	sp, r7
.LCFI75:
	@ sp needed
	pop	{r4, r5, r7, pc}
.L184:
	.align	2
.L183:
	.word	RX_LENGTH.8752
.LFE244:
	.size	drv_ccs811_fw_boot_version_get, .-drv_ccs811_fw_boot_version_get
	.section	.text.drv_ccs811_fw_app_version_get,"ax",%progbits
	.align	1
	.global	drv_ccs811_fw_app_version_get
	.syntax unified
	.thumb
	.thumb_func
	.fpu fpv4-sp-d16
	.type	drv_ccs811_fw_app_version_get, %function
drv_ccs811_fw_app_version_get:
.LFB245:
	.loc 2 567 1
	@ args = 0, pretend = 0, frame = 16
	@ frame_needed = 1, uses_anonymous_args = 0
	push	{r4, r5, r7, lr}
.LCFI76:
	sub	sp, sp, #16
.LCFI77:
	add	r7, sp, #0
.LCFI78:
	str	r0, [r7, #4]
	.loc 2 567 1
	mov	r3, sp
	mov	r5, r3
	.loc 2 569 13
	ldr	r3, .L190
	ldrb	r3, [r3]	@ zero_extendqisi2
	subs	r3, r3, #1
	str	r3, [r7, #12]
	ldr	r3, .L190
	ldrb	r3, [r3]	@ zero_extendqisi2
	uxtb	r1, r3
	mov	r2, #0
	mov	r3, #0
	mov	r4, #0
	lsls	r4, r2, #3
	orr	r4, r4, r1, lsr #29
	lsls	r3, r1, #3
	ldr	r3, .L190
	ldrb	r3, [r3]	@ zero_extendqisi2
	uxtb	r1, r3
	mov	r2, #0
	mov	r3, #0
	mov	r4, #0
	lsls	r4, r2, #3
	orr	r4, r4, r1, lsr #29
	lsls	r3, r1, #3
	ldr	r3, .L190
	ldrb	r3, [r3]	@ zero_extendqisi2
	adds	r3, r3, #7
	lsrs	r3, r3, #3
	lsls	r3, r3, #3
	sub	sp, sp, r3
	mov	r3, sp
	adds	r3, r3, #0
	str	r3, [r7, #8]
	.loc 2 571 8
	ldr	r3, [r7, #4]
	cmp	r3, #0
	bne	.L186
	.loc 2 573 16
	movs	r3, #2
	b	.L187
.L186:
	.loc 2 576 9
	ldr	r3, .L190
	ldrb	r3, [r3]	@ zero_extendqisi2
	ldr	r2, [r7, #8]
	mov	r1, r3
	movs	r0, #36
	bl	multi_byte_register_get
	mov	r3, r0
	.loc 2 576 8
	cmp	r3, #0
	beq	.L188
	.loc 2 578 37
	ldr	r3, [r7, #8]
	ldrb	r3, [r3]	@ zero_extendqisi2
	uxth	r3, r3
	.loc 2 578 41
	lsls	r3, r3, #8
	uxth	r2, r3
	.loc 2 578 56
	ldr	r3, [r7, #8]
	ldrb	r3, [r3, #1]	@ zero_extendqisi2
	uxth	r3, r3
	.loc 2 578 47
	add	r3, r3, r2
	uxth	r2, r3
	.loc 2 578 27
	ldr	r3, [r7, #4]
	strh	r2, [r3]	@ movhi
	.loc 2 579 16
	movs	r3, #0
	b	.L187
.L188:
	.loc 2 582 12
	movs	r3, #1
.L187:
	mov	sp, r5
	.loc 2 583 1
	mov	r0, r3
	adds	r7, r7, #16
.LCFI79:
	mov	sp, r7
.LCFI80:
	@ sp needed
	pop	{r4, r5, r7, pc}
.L191:
	.align	2
.L190:
	.word	RX_LENGTH.8757
.LFE245:
	.size	drv_ccs811_fw_app_version_get, .-drv_ccs811_fw_app_version_get
	.section	.text.drv_ccs811_err_id_get,"ax",%progbits
	.align	1
	.global	drv_ccs811_err_id_get
	.syntax unified
	.thumb
	.thumb_func
	.fpu fpv4-sp-d16
	.type	drv_ccs811_err_id_get, %function
drv_ccs811_err_id_get:
.LFB246:
	.loc 2 587 1
	@ args = 0, pretend = 0, frame = 8
	@ frame_needed = 0, uses_anonymous_args = 0
	push	{lr}
.LCFI81:
	sub	sp, sp, #12
.LCFI82:
	str	r0, [sp, #4]
	.loc 2 588 10
	ldr	r1, [sp, #4]
	movs	r0, #224
	bl	reg_get
	mov	r3, r0
	.loc 2 588 8
	cmp	r3, #0
	beq	.L193
	.loc 2 590 16
	movs	r3, #0
	b	.L194
.L193:
	.loc 2 593 12
	movs	r3, #1
.L194:
	.loc 2 594 1
	mov	r0, r3
	add	sp, sp, #12
.LCFI83:
	@ sp needed
	ldr	pc, [sp], #4
.LFE246:
	.size	drv_ccs811_err_id_get, .-drv_ccs811_err_id_get
	.section	.text.drv_ccs811_app_start,"ax",%progbits
	.align	1
	.global	drv_ccs811_app_start
	.syntax unified
	.thumb
	.thumb_func
	.fpu fpv4-sp-d16
	.type	drv_ccs811_app_start, %function
drv_ccs811_app_start:
.LFB247:
	.loc 2 598 1
	@ args = 0, pretend = 0, frame = 8
	@ frame_needed = 0, uses_anonymous_args = 0
	push	{lr}
.LCFI84:
	sub	sp, sp, #12
.LCFI85:
	.loc 2 600 13
	movs	r3, #244
	strb	r3, [sp, #6]
	.loc 2 602 11
	add	r3, sp, #7
	mov	r0, r3
	bl	drv_ccs811_status_get
	mov	r3, r0
	.loc 2 602 8
	cmp	r3, #0
	bne	.L196
	.loc 2 603 19
	ldrb	r3, [sp, #7]	@ zero_extendqisi2
	and	r3, r3, #16
	.loc 2 603 5
	cmp	r3, #0
	beq	.L196
	.loc 2 604 11
	add	r3, sp, #6
	mov	r1, r3
	movs	r0, #1
	bl	multi_byte_register_set
	mov	r3, r0
	.loc 2 604 5
	cmp	r3, #0
	beq	.L196
	.loc 2 606 16
	movs	r3, #0
	b	.L198
.L196:
	.loc 2 609 12
	movs	r3, #1
.L198:
	.loc 2 610 1 discriminator 1
	mov	r0, r3
	add	sp, sp, #12
.LCFI86:
	@ sp needed
	ldr	pc, [sp], #4
.LFE247:
	.size	drv_ccs811_app_start, .-drv_ccs811_app_start
	.section .rodata
	.align	2
.LC0:
	.byte	-1
	.byte	17
	.byte	-27
	.byte	114
	.byte	-118
	.section	.text.drv_ccs811_sw_reset,"ax",%progbits
	.align	1
	.global	drv_ccs811_sw_reset
	.syntax unified
	.thumb
	.thumb_func
	.fpu fpv4-sp-d16
	.type	drv_ccs811_sw_reset, %function
drv_ccs811_sw_reset:
.LFB248:
	.loc 2 614 1
	@ args = 0, pretend = 0, frame = 8
	@ frame_needed = 0, uses_anonymous_args = 0
	push	{lr}
.LCFI87:
	sub	sp, sp, #12
.LCFI88:
	.loc 2 616 13
	ldr	r2, .L203
	mov	r3, sp
	ldm	r2, {r0, r1}
	str	r0, [r3]
	adds	r3, r3, #4
	strb	r1, [r3]
	.loc 2 618 10
	ldr	r3, .L203+4
	ldrb	r3, [r3]	@ zero_extendqisi2
	mov	r2, sp
	mov	r1, r2
	mov	r0, r3
	bl	multi_byte_register_set
	mov	r3, r0
	.loc 2 618 8
	cmp	r3, #0
	beq	.L200
	.loc 2 620 16
	movs	r3, #0
	b	.L202
.L200:
	.loc 2 623 12
	movs	r3, #1
.L202:
	.loc 2 624 1 discriminator 1
	mov	r0, r3
	add	sp, sp, #12
.LCFI89:
	@ sp needed
	ldr	pc, [sp], #4
.L204:
	.align	2
.L203:
	.word	.LC0
	.word	TX_LENGTH.8770
.LFE248:
	.size	drv_ccs811_sw_reset, .-drv_ccs811_sw_reset
	.section	.text.drv_ccs811_close,"ax",%progbits
	.align	1
	.global	drv_ccs811_close
	.syntax unified
	.thumb
	.thumb_func
	.fpu fpv4-sp-d16
	.type	drv_ccs811_close, %function
drv_ccs811_close:
.LFB249:
	.loc 2 628 1
	@ args = 0, pretend = 0, frame = 0
	@ frame_needed = 0, uses_anonymous_args = 0
	push	{r3, lr}
.LCFI90:
	.loc 2 629 22
	ldr	r3, .L208
	ldr	r3, [r3]
	.loc 2 629 8
	cmp	r3, #0
	beq	.L206
	.loc 2 631 41
	ldr	r3, .L208
	ldr	r3, [r3]
	.loc 2 631 9
	ldr	r3, [r3, #4]
	mov	r0, r3
	bl	nrf_drv_twi_disable
	.loc 2 632 40
	ldr	r3, .L208
	ldr	r3, [r3]
	.loc 2 632 9
	ldr	r3, [r3, #4]
	mov	r0, r3
	bl	nrf_drv_twi_uninit
	.loc 2 633 39
	ldr	r3, .L208
	movs	r2, #0
	str	r2, [r3]
	.loc 2 635 16
	movs	r3, #0
	b	.L207
.L206:
	.loc 2 638 12
	movs	r3, #1
.L207:
	.loc 2 639 1
	mov	r0, r3
	pop	{r3, pc}
.L209:
	.align	2
.L208:
	.word	m_drv_ccs811
.LFE249:
	.size	drv_ccs811_close, .-drv_ccs811_close
	.section	.rodata.RX_LENGTH.8705,"a"
	.type	RX_LENGTH.8705, %object
	.size	RX_LENGTH.8705, 1
RX_LENGTH.8705:
	.byte	2
	.section	.rodata.RX_LENGTH.8712,"a"
	.type	RX_LENGTH.8712, %object
	.size	RX_LENGTH.8712, 1
RX_LENGTH.8712:
	.byte	5
	.section	.rodata.TX_LENGTH.8719,"a"
	.type	TX_LENGTH.8719, %object
	.size	TX_LENGTH.8719, 1
TX_LENGTH.8719:
	.byte	6
	.section	.rodata.RX_LENGTH.8725,"a"
	.type	RX_LENGTH.8725, %object
	.size	RX_LENGTH.8725, 1
RX_LENGTH.8725:
	.byte	4
	.section	.rodata.TX_LENGTH.8731,"a"
	.type	TX_LENGTH.8731, %object
	.size	TX_LENGTH.8731, 1
TX_LENGTH.8731:
	.byte	5
	.section	.rodata.RX_LENGTH.8736,"a"
	.type	RX_LENGTH.8736, %object
	.size	RX_LENGTH.8736, 1
RX_LENGTH.8736:
	.byte	2
	.section	.rodata.TX_LENGTH.8741,"a"
	.type	TX_LENGTH.8741, %object
	.size	TX_LENGTH.8741, 1
TX_LENGTH.8741:
	.byte	3
	.section	.rodata.RX_LENGTH.8752,"a"
	.type	RX_LENGTH.8752, %object
	.size	RX_LENGTH.8752, 1
RX_LENGTH.8752:
	.byte	2
	.section	.rodata.RX_LENGTH.8757,"a"
	.type	RX_LENGTH.8757, %object
	.size	RX_LENGTH.8757, 1
RX_LENGTH.8757:
	.byte	2
	.section	.rodata.TX_LENGTH.8770,"a"
	.type	TX_LENGTH.8770, %object
	.size	TX_LENGTH.8770, 1
TX_LENGTH.8770:
	.byte	5
	.section	.debug_frame,"",%progbits
.Lframe0:
	.4byte	.LECIE0-.LSCIE0
.LSCIE0:
	.4byte	0xffffffff
	.byte	0x3
	.ascii	"\000"
	.uleb128 0x1
	.sleb128 -4
	.uleb128 0xe
	.byte	0xc
	.uleb128 0xd
	.uleb128 0
	.align	2
.LECIE0:
.LSFDE0:
	.4byte	.LEFDE0-.LASFDE0
.LASFDE0:
	.4byte	.Lframe0
	.4byte	.LFB150
	.4byte	.LFE150-.LFB150
	.align	2
.LEFDE0:
.LSFDE2:
	.4byte	.LEFDE2-.LASFDE2
.LASFDE2:
	.4byte	.Lframe0
	.4byte	.LFB151
	.4byte	.LFE151-.LFB151
	.align	2
.LEFDE2:
.LSFDE4:
	.4byte	.LEFDE4-.LASFDE4
.LASFDE4:
	.4byte	.Lframe0
	.4byte	.LFB152
	.4byte	.LFE152-.LFB152
	.align	2
.LEFDE4:
.LSFDE6:
	.4byte	.LEFDE6-.LASFDE6
.LASFDE6:
	.4byte	.Lframe0
	.4byte	.LFB153
	.4byte	.LFE153-.LFB153
	.align	2
.LEFDE6:
.LSFDE8:
	.4byte	.LEFDE8-.LASFDE8
.LASFDE8:
	.4byte	.Lframe0
	.4byte	.LFB154
	.4byte	.LFE154-.LFB154
	.align	2
.LEFDE8:
.LSFDE10:
	.4byte	.LEFDE10-.LASFDE10
.LASFDE10:
	.4byte	.Lframe0
	.4byte	.LFB155
	.4byte	.LFE155-.LFB155
	.align	2
.LEFDE10:
.LSFDE12:
	.4byte	.LEFDE12-.LASFDE12
.LASFDE12:
	.4byte	.Lframe0
	.4byte	.LFB156
	.4byte	.LFE156-.LFB156
	.align	2
.LEFDE12:
.LSFDE14:
	.4byte	.LEFDE14-.LASFDE14
.LASFDE14:
	.4byte	.Lframe0
	.4byte	.LFB157
	.4byte	.LFE157-.LFB157
	.align	2
.LEFDE14:
.LSFDE16:
	.4byte	.LEFDE16-.LASFDE16
.LASFDE16:
	.4byte	.Lframe0
	.4byte	.LFB158
	.4byte	.LFE158-.LFB158
	.align	2
.LEFDE16:
.LSFDE18:
	.4byte	.LEFDE18-.LASFDE18
.LASFDE18:
	.4byte	.Lframe0
	.4byte	.LFB159
	.4byte	.LFE159-.LFB159
	.align	2
.LEFDE18:
.LSFDE20:
	.4byte	.LEFDE20-.LASFDE20
.LASFDE20:
	.4byte	.Lframe0
	.4byte	.LFB160
	.4byte	.LFE160-.LFB160
	.align	2
.LEFDE20:
.LSFDE22:
	.4byte	.LEFDE22-.LASFDE22
.LASFDE22:
	.4byte	.Lframe0
	.4byte	.LFB161
	.4byte	.LFE161-.LFB161
	.align	2
.LEFDE22:
.LSFDE24:
	.4byte	.LEFDE24-.LASFDE24
.LASFDE24:
	.4byte	.Lframe0
	.4byte	.LFB162
	.4byte	.LFE162-.LFB162
	.align	2
.LEFDE24:
.LSFDE26:
	.4byte	.LEFDE26-.LASFDE26
.LASFDE26:
	.4byte	.Lframe0
	.4byte	.LFB163
	.4byte	.LFE163-.LFB163
	.align	2
.LEFDE26:
.LSFDE28:
	.4byte	.LEFDE28-.LASFDE28
.LASFDE28:
	.4byte	.Lframe0
	.4byte	.LFB164
	.4byte	.LFE164-.LFB164
	.align	2
.LEFDE28:
.LSFDE30:
	.4byte	.LEFDE30-.LASFDE30
.LASFDE30:
	.4byte	.Lframe0
	.4byte	.LFB165
	.4byte	.LFE165-.LFB165
	.align	2
.LEFDE30:
.LSFDE32:
	.4byte	.LEFDE32-.LASFDE32
.LASFDE32:
	.4byte	.Lframe0
	.4byte	.LFB166
	.4byte	.LFE166-.LFB166
	.align	2
.LEFDE32:
.LSFDE34:
	.4byte	.LEFDE34-.LASFDE34
.LASFDE34:
	.4byte	.Lframe0
	.4byte	.LFB167
	.4byte	.LFE167-.LFB167
	.align	2
.LEFDE34:
.LSFDE36:
	.4byte	.LEFDE36-.LASFDE36
.LASFDE36:
	.4byte	.Lframe0
	.4byte	.LFB168
	.4byte	.LFE168-.LFB168
	.align	2
.LEFDE36:
.LSFDE38:
	.4byte	.LEFDE38-.LASFDE38
.LASFDE38:
	.4byte	.Lframe0
	.4byte	.LFB169
	.4byte	.LFE169-.LFB169
	.align	2
.LEFDE38:
.LSFDE40:
	.4byte	.LEFDE40-.LASFDE40
.LASFDE40:
	.4byte	.Lframe0
	.4byte	.LFB170
	.4byte	.LFE170-.LFB170
	.align	2
.LEFDE40:
.LSFDE42:
	.4byte	.LEFDE42-.LASFDE42
.LASFDE42:
	.4byte	.Lframe0
	.4byte	.LFB171
	.4byte	.LFE171-.LFB171
	.align	2
.LEFDE42:
.LSFDE44:
	.4byte	.LEFDE44-.LASFDE44
.LASFDE44:
	.4byte	.Lframe0
	.4byte	.LFB172
	.4byte	.LFE172-.LFB172
	.align	2
.LEFDE44:
.LSFDE46:
	.4byte	.LEFDE46-.LASFDE46
.LASFDE46:
	.4byte	.Lframe0
	.4byte	.LFB173
	.4byte	.LFE173-.LFB173
	.align	2
.LEFDE46:
.LSFDE48:
	.4byte	.LEFDE48-.LASFDE48
.LASFDE48:
	.4byte	.Lframe0
	.4byte	.LFB174
	.4byte	.LFE174-.LFB174
	.align	2
.LEFDE48:
.LSFDE50:
	.4byte	.LEFDE50-.LASFDE50
.LASFDE50:
	.4byte	.Lframe0
	.4byte	.LFB175
	.4byte	.LFE175-.LFB175
	.align	2
.LEFDE50:
.LSFDE52:
	.4byte	.LEFDE52-.LASFDE52
.LASFDE52:
	.4byte	.Lframe0
	.4byte	.LFB176
	.4byte	.LFE176-.LFB176
	.align	2
.LEFDE52:
.LSFDE54:
	.4byte	.LEFDE54-.LASFDE54
.LASFDE54:
	.4byte	.Lframe0
	.4byte	.LFB177
	.4byte	.LFE177-.LFB177
	.align	2
.LEFDE54:
.LSFDE56:
	.4byte	.LEFDE56-.LASFDE56
.LASFDE56:
	.4byte	.Lframe0
	.4byte	.LFB178
	.4byte	.LFE178-.LFB178
	.align	2
.LEFDE56:
.LSFDE58:
	.4byte	.LEFDE58-.LASFDE58
.LASFDE58:
	.4byte	.Lframe0
	.4byte	.LFB179
	.4byte	.LFE179-.LFB179
	.align	2
.LEFDE58:
.LSFDE60:
	.4byte	.LEFDE60-.LASFDE60
.LASFDE60:
	.4byte	.Lframe0
	.4byte	.LFB180
	.4byte	.LFE180-.LFB180
	.align	2
.LEFDE60:
.LSFDE62:
	.4byte	.LEFDE62-.LASFDE62
.LASFDE62:
	.4byte	.Lframe0
	.4byte	.LFB181
	.4byte	.LFE181-.LFB181
	.align	2
.LEFDE62:
.LSFDE64:
	.4byte	.LEFDE64-.LASFDE64
.LASFDE64:
	.4byte	.Lframe0
	.4byte	.LFB182
	.4byte	.LFE182-.LFB182
	.align	2
.LEFDE64:
.LSFDE66:
	.4byte	.LEFDE66-.LASFDE66
.LASFDE66:
	.4byte	.Lframe0
	.4byte	.LFB183
	.4byte	.LFE183-.LFB183
	.align	2
.LEFDE66:
.LSFDE68:
	.4byte	.LEFDE68-.LASFDE68
.LASFDE68:
	.4byte	.Lframe0
	.4byte	.LFB184
	.4byte	.LFE184-.LFB184
	.align	2
.LEFDE68:
.LSFDE70:
	.4byte	.LEFDE70-.LASFDE70
.LASFDE70:
	.4byte	.Lframe0
	.4byte	.LFB185
	.4byte	.LFE185-.LFB185
	.align	2
.LEFDE70:
.LSFDE72:
	.4byte	.LEFDE72-.LASFDE72
.LASFDE72:
	.4byte	.Lframe0
	.4byte	.LFB186
	.4byte	.LFE186-.LFB186
	.align	2
.LEFDE72:
.LSFDE74:
	.4byte	.LEFDE74-.LASFDE74
.LASFDE74:
	.4byte	.Lframe0
	.4byte	.LFB187
	.4byte	.LFE187-.LFB187
	.align	2
.LEFDE74:
.LSFDE76:
	.4byte	.LEFDE76-.LASFDE76
.LASFDE76:
	.4byte	.Lframe0
	.4byte	.LFB188
	.4byte	.LFE188-.LFB188
	.align	2
.LEFDE76:
.LSFDE78:
	.4byte	.LEFDE78-.LASFDE78
.LASFDE78:
	.4byte	.Lframe0
	.4byte	.LFB189
	.4byte	.LFE189-.LFB189
	.align	2
.LEFDE78:
.LSFDE80:
	.4byte	.LEFDE80-.LASFDE80
.LASFDE80:
	.4byte	.Lframe0
	.4byte	.LFB190
	.4byte	.LFE190-.LFB190
	.align	2
.LEFDE80:
.LSFDE82:
	.4byte	.LEFDE82-.LASFDE82
.LASFDE82:
	.4byte	.Lframe0
	.4byte	.LFB191
	.4byte	.LFE191-.LFB191
	.align	2
.LEFDE82:
.LSFDE84:
	.4byte	.LEFDE84-.LASFDE84
.LASFDE84:
	.4byte	.Lframe0
	.4byte	.LFB224
	.4byte	.LFE224-.LFB224
	.byte	0x4
	.4byte	.LCFI0-.LFB224
	.byte	0xe
	.uleb128 0x4
	.byte	0x8e
	.uleb128 0x1
	.byte	0x4
	.4byte	.LCFI1-.LCFI0
	.byte	0xe
	.uleb128 0x20
	.byte	0x4
	.4byte	.LCFI2-.LCFI1
	.byte	0xe
	.uleb128 0x4
	.align	2
.LEFDE84:
.LSFDE86:
	.4byte	.LEFDE86-.LASFDE86
.LASFDE86:
	.4byte	.Lframe0
	.4byte	.LFB225
	.4byte	.LFE225-.LFB225
	.byte	0x4
	.4byte	.LCFI3-.LFB225
	.byte	0xe
	.uleb128 0x4
	.byte	0x8e
	.uleb128 0x1
	.byte	0x4
	.4byte	.LCFI4-.LCFI3
	.byte	0xe
	.uleb128 0x20
	.byte	0x4
	.4byte	.LCFI5-.LCFI4
	.byte	0xe
	.uleb128 0x4
	.align	2
.LEFDE86:
.LSFDE88:
	.4byte	.LEFDE88-.LASFDE88
.LASFDE88:
	.4byte	.Lframe0
	.4byte	.LFB226
	.4byte	.LFE226-.LFB226
	.byte	0x4
	.4byte	.LCFI6-.LFB226
	.byte	0xe
	.uleb128 0x4
	.byte	0x8e
	.uleb128 0x1
	.byte	0x4
	.4byte	.LCFI7-.LCFI6
	.byte	0xe
	.uleb128 0x18
	.byte	0x4
	.4byte	.LCFI8-.LCFI7
	.byte	0xe
	.uleb128 0x4
	.align	2
.LEFDE88:
.LSFDE90:
	.4byte	.LEFDE90-.LASFDE90
.LASFDE90:
	.4byte	.Lframe0
	.4byte	.LFB227
	.4byte	.LFE227-.LFB227
	.byte	0x4
	.4byte	.LCFI9-.LFB227
	.byte	0xe
	.uleb128 0x4
	.byte	0x8e
	.uleb128 0x1
	.byte	0x4
	.4byte	.LCFI10-.LCFI9
	.byte	0xe
	.uleb128 0x20
	.byte	0x4
	.4byte	.LCFI11-.LCFI10
	.byte	0xe
	.uleb128 0x4
	.align	2
.LEFDE90:
.LSFDE92:
	.4byte	.LEFDE92-.LASFDE92
.LASFDE92:
	.4byte	.Lframe0
	.4byte	.LFB228
	.4byte	.LFE228-.LFB228
	.byte	0x4
	.4byte	.LCFI12-.LFB228
	.byte	0xe
	.uleb128 0x4
	.byte	0x8e
	.uleb128 0x1
	.byte	0x4
	.4byte	.LCFI13-.LCFI12
	.byte	0xe
	.uleb128 0x20
	.byte	0x4
	.4byte	.LCFI14-.LCFI13
	.byte	0xe
	.uleb128 0x4
	.align	2
.LEFDE92:
.LSFDE94:
	.4byte	.LEFDE94-.LASFDE94
.LASFDE94:
	.4byte	.Lframe0
	.4byte	.LFB229
	.4byte	.LFE229-.LFB229
	.align	2
.LEFDE94:
.LSFDE96:
	.4byte	.LEFDE96-.LASFDE96
.LASFDE96:
	.4byte	.Lframe0
	.4byte	.LFB230
	.4byte	.LFE230-.LFB230
	.byte	0x4
	.4byte	.LCFI15-.LFB230
	.byte	0xe
	.uleb128 0x4
	.byte	0x8e
	.uleb128 0x1
	.byte	0x4
	.4byte	.LCFI16-.LCFI15
	.byte	0xe
	.uleb128 0x18
	.byte	0x4
	.4byte	.LCFI17-.LCFI16
	.byte	0xe
	.uleb128 0x4
	.align	2
.LEFDE96:
.LSFDE98:
	.4byte	.LEFDE98-.LASFDE98
.LASFDE98:
	.4byte	.Lframe0
	.4byte	.LFB231
	.4byte	.LFE231-.LFB231
	.byte	0x4
	.4byte	.LCFI18-.LFB231
	.byte	0xe
	.uleb128 0x4
	.byte	0x8e
	.uleb128 0x1
	.byte	0x4
	.4byte	.LCFI19-.LCFI18
	.byte	0xe
	.uleb128 0x10
	.byte	0x4
	.4byte	.LCFI20-.LCFI19
	.byte	0xe
	.uleb128 0x4
	.align	2
.LEFDE98:
.LSFDE100:
	.4byte	.LEFDE100-.LASFDE100
.LASFDE100:
	.4byte	.Lframe0
	.4byte	.LFB232
	.4byte	.LFE232-.LFB232
	.byte	0x4
	.4byte	.LCFI21-.LFB232
	.byte	0xe
	.uleb128 0x4
	.byte	0x8e
	.uleb128 0x1
	.byte	0x4
	.4byte	.LCFI22-.LCFI21
	.byte	0xe
	.uleb128 0x10
	.byte	0x4
	.4byte	.LCFI23-.LCFI22
	.byte	0xe
	.uleb128 0x4
	.align	2
.LEFDE100:
.LSFDE102:
	.4byte	.LEFDE102-.LASFDE102
.LASFDE102:
	.4byte	.Lframe0
	.4byte	.LFB233
	.4byte	.LFE233-.LFB233
	.byte	0x4
	.4byte	.LCFI24-.LFB233
	.byte	0xe
	.uleb128 0x4
	.byte	0x8e
	.uleb128 0x1
	.byte	0x4
	.4byte	.LCFI25-.LCFI24
	.byte	0xe
	.uleb128 0x10
	.byte	0x4
	.4byte	.LCFI26-.LCFI25
	.byte	0xe
	.uleb128 0x4
	.align	2
.LEFDE102:
.LSFDE104:
	.4byte	.LEFDE104-.LASFDE104
.LASFDE104:
	.4byte	.Lframe0
	.4byte	.LFB234
	.4byte	.LFE234-.LFB234
	.byte	0x4
	.4byte	.LCFI27-.LFB234
	.byte	0xe
	.uleb128 0x4
	.byte	0x8e
	.uleb128 0x1
	.byte	0x4
	.4byte	.LCFI28-.LCFI27
	.byte	0xe
	.uleb128 0x20
	.byte	0x4
	.4byte	.LCFI29-.LCFI28
	.byte	0xe
	.uleb128 0x4
	.align	2
.LEFDE104:
.LSFDE106:
	.4byte	.LEFDE106-.LASFDE106
.LASFDE106:
	.4byte	.Lframe0
	.4byte	.LFB235
	.4byte	.LFE235-.LFB235
	.byte	0x4
	.4byte	.LCFI30-.LFB235
	.byte	0xe
	.uleb128 0x10
	.byte	0x84
	.uleb128 0x4
	.byte	0x85
	.uleb128 0x3
	.byte	0x87
	.uleb128 0x2
	.byte	0x8e
	.uleb128 0x1
	.byte	0x4
	.4byte	.LCFI31-.LCFI30
	.byte	0xe
	.uleb128 0x20
	.byte	0x4
	.4byte	.LCFI32-.LCFI31
	.byte	0xd
	.uleb128 0x7
	.byte	0x4
	.4byte	.LCFI33-.LCFI32
	.byte	0xe
	.uleb128 0x10
	.byte	0x4
	.4byte	.LCFI34-.LCFI33
	.byte	0xd
	.uleb128 0xd
	.align	2
.LEFDE106:
.LSFDE108:
	.4byte	.LEFDE108-.LASFDE108
.LASFDE108:
	.4byte	.Lframe0
	.4byte	.LFB236
	.4byte	.LFE236-.LFB236
	.byte	0x4
	.4byte	.LCFI35-.LFB236
	.byte	0xe
	.uleb128 0x10
	.byte	0x84
	.uleb128 0x4
	.byte	0x85
	.uleb128 0x3
	.byte	0x87
	.uleb128 0x2
	.byte	0x8e
	.uleb128 0x1
	.byte	0x4
	.4byte	.LCFI36-.LCFI35
	.byte	0xe
	.uleb128 0x28
	.byte	0x4
	.4byte	.LCFI37-.LCFI36
	.byte	0xd
	.uleb128 0x7
	.byte	0x4
	.4byte	.LCFI38-.LCFI37
	.byte	0xe
	.uleb128 0x10
	.byte	0x4
	.4byte	.LCFI39-.LCFI38
	.byte	0xd
	.uleb128 0xd
	.align	2
.LEFDE108:
.LSFDE110:
	.4byte	.LEFDE110-.LASFDE110
.LASFDE110:
	.4byte	.Lframe0
	.4byte	.LFB237
	.4byte	.LFE237-.LFB237
	.byte	0x4
	.4byte	.LCFI40-.LFB237
	.byte	0xe
	.uleb128 0x10
	.byte	0x84
	.uleb128 0x4
	.byte	0x85
	.uleb128 0x3
	.byte	0x87
	.uleb128 0x2
	.byte	0x8e
	.uleb128 0x1
	.byte	0x4
	.4byte	.LCFI41-.LCFI40
	.byte	0xe
	.uleb128 0x20
	.byte	0x4
	.4byte	.LCFI42-.LCFI41
	.byte	0xd
	.uleb128 0x7
	.byte	0x4
	.4byte	.LCFI43-.LCFI42
	.byte	0xe
	.uleb128 0x10
	.byte	0x4
	.4byte	.LCFI44-.LCFI43
	.byte	0xd
	.uleb128 0xd
	.align	2
.LEFDE110:
.LSFDE112:
	.4byte	.LEFDE112-.LASFDE112
.LASFDE112:
	.4byte	.Lframe0
	.4byte	.LFB238
	.4byte	.LFE238-.LFB238
	.byte	0x4
	.4byte	.LCFI45-.LFB238
	.byte	0xe
	.uleb128 0x10
	.byte	0x84
	.uleb128 0x4
	.byte	0x85
	.uleb128 0x3
	.byte	0x87
	.uleb128 0x2
	.byte	0x8e
	.uleb128 0x1
	.byte	0x4
	.4byte	.LCFI46-.LCFI45
	.byte	0xe
	.uleb128 0x20
	.byte	0x4
	.4byte	.LCFI47-.LCFI46
	.byte	0xd
	.uleb128 0x7
	.byte	0x4
	.4byte	.LCFI48-.LCFI47
	.byte	0xe
	.uleb128 0x10
	.byte	0x4
	.4byte	.LCFI49-.LCFI48
	.byte	0xd
	.uleb128 0xd
	.align	2
.LEFDE112:
.LSFDE114:
	.4byte	.LEFDE114-.LASFDE114
.LASFDE114:
	.4byte	.Lframe0
	.4byte	.LFB239
	.4byte	.LFE239-.LFB239
	.byte	0x4
	.4byte	.LCFI50-.LFB239
	.byte	0xe
	.uleb128 0x10
	.byte	0x84
	.uleb128 0x4
	.byte	0x85
	.uleb128 0x3
	.byte	0x87
	.uleb128 0x2
	.byte	0x8e
	.uleb128 0x1
	.byte	0x4
	.4byte	.LCFI51-.LCFI50
	.byte	0xe
	.uleb128 0x20
	.byte	0x4
	.4byte	.LCFI52-.LCFI51
	.byte	0xd
	.uleb128 0x7
	.byte	0x4
	.4byte	.LCFI53-.LCFI52
	.byte	0xe
	.uleb128 0x10
	.byte	0x4
	.4byte	.LCFI54-.LCFI53
	.byte	0xd
	.uleb128 0xd
	.align	2
.LEFDE114:
.LSFDE116:
	.4byte	.LEFDE116-.LASFDE116
.LASFDE116:
	.4byte	.Lframe0
	.4byte	.LFB240
	.4byte	.LFE240-.LFB240
	.byte	0x4
	.4byte	.LCFI55-.LFB240
	.byte	0xe
	.uleb128 0x10
	.byte	0x84
	.uleb128 0x4
	.byte	0x85
	.uleb128 0x3
	.byte	0x87
	.uleb128 0x2
	.byte	0x8e
	.uleb128 0x1
	.byte	0x4
	.4byte	.LCFI56-.LCFI55
	.byte	0xe
	.uleb128 0x20
	.byte	0x4
	.4byte	.LCFI57-.LCFI56
	.byte	0xd
	.uleb128 0x7
	.byte	0x4
	.4byte	.LCFI58-.LCFI57
	.byte	0xe
	.uleb128 0x10
	.byte	0x4
	.4byte	.LCFI59-.LCFI58
	.byte	0xd
	.uleb128 0xd
	.align	2
.LEFDE116:
.LSFDE118:
	.4byte	.LEFDE118-.LASFDE118
.LASFDE118:
	.4byte	.Lframe0
	.4byte	.LFB241
	.4byte	.LFE241-.LFB241
	.byte	0x4
	.4byte	.LCFI60-.LFB241
	.byte	0xe
	.uleb128 0x10
	.byte	0x84
	.uleb128 0x4
	.byte	0x85
	.uleb128 0x3
	.byte	0x87
	.uleb128 0x2
	.byte	0x8e
	.uleb128 0x1
	.byte	0x4
	.4byte	.LCFI61-.LCFI60
	.byte	0xe
	.uleb128 0x20
	.byte	0x4
	.4byte	.LCFI62-.LCFI61
	.byte	0xd
	.uleb128 0x7
	.byte	0x4
	.4byte	.LCFI63-.LCFI62
	.byte	0xe
	.uleb128 0x10
	.byte	0x4
	.4byte	.LCFI64-.LCFI63
	.byte	0xd
	.uleb128 0xd
	.align	2
.LEFDE118:
.LSFDE120:
	.4byte	.LEFDE120-.LASFDE120
.LASFDE120:
	.4byte	.Lframe0
	.4byte	.LFB242
	.4byte	.LFE242-.LFB242
	.byte	0x4
	.4byte	.LCFI65-.LFB242
	.byte	0xe
	.uleb128 0x4
	.byte	0x8e
	.uleb128 0x1
	.byte	0x4
	.4byte	.LCFI66-.LCFI65
	.byte	0xe
	.uleb128 0x10
	.byte	0x4
	.4byte	.LCFI67-.LCFI66
	.byte	0xe
	.uleb128 0x4
	.align	2
.LEFDE120:
.LSFDE122:
	.4byte	.LEFDE122-.LASFDE122
.LASFDE122:
	.4byte	.Lframe0
	.4byte	.LFB243
	.4byte	.LFE243-.LFB243
	.byte	0x4
	.4byte	.LCFI68-.LFB243
	.byte	0xe
	.uleb128 0x4
	.byte	0x8e
	.uleb128 0x1
	.byte	0x4
	.4byte	.LCFI69-.LCFI68
	.byte	0xe
	.uleb128 0x10
	.byte	0x4
	.4byte	.LCFI70-.LCFI69
	.byte	0xe
	.uleb128 0x4
	.align	2
.LEFDE122:
.LSFDE124:
	.4byte	.LEFDE124-.LASFDE124
.LASFDE124:
	.4byte	.Lframe0
	.4byte	.LFB244
	.4byte	.LFE244-.LFB244
	.byte	0x4
	.4byte	.LCFI71-.LFB244
	.byte	0xe
	.uleb128 0x10
	.byte	0x84
	.uleb128 0x4
	.byte	0x85
	.uleb128 0x3
	.byte	0x87
	.uleb128 0x2
	.byte	0x8e
	.uleb128 0x1
	.byte	0x4
	.4byte	.LCFI72-.LCFI71
	.byte	0xe
	.uleb128 0x20
	.byte	0x4
	.4byte	.LCFI73-.LCFI72
	.byte	0xd
	.uleb128 0x7
	.byte	0x4
	.4byte	.LCFI74-.LCFI73
	.byte	0xe
	.uleb128 0x10
	.byte	0x4
	.4byte	.LCFI75-.LCFI74
	.byte	0xd
	.uleb128 0xd
	.align	2
.LEFDE124:
.LSFDE126:
	.4byte	.LEFDE126-.LASFDE126
.LASFDE126:
	.4byte	.Lframe0
	.4byte	.LFB245
	.4byte	.LFE245-.LFB245
	.byte	0x4
	.4byte	.LCFI76-.LFB245
	.byte	0xe
	.uleb128 0x10
	.byte	0x84
	.uleb128 0x4
	.byte	0x85
	.uleb128 0x3
	.byte	0x87
	.uleb128 0x2
	.byte	0x8e
	.uleb128 0x1
	.byte	0x4
	.4byte	.LCFI77-.LCFI76
	.byte	0xe
	.uleb128 0x20
	.byte	0x4
	.4byte	.LCFI78-.LCFI77
	.byte	0xd
	.uleb128 0x7
	.byte	0x4
	.4byte	.LCFI79-.LCFI78
	.byte	0xe
	.uleb128 0x10
	.byte	0x4
	.4byte	.LCFI80-.LCFI79
	.byte	0xd
	.uleb128 0xd
	.align	2
.LEFDE126:
.LSFDE128:
	.4byte	.LEFDE128-.LASFDE128
.LASFDE128:
	.4byte	.Lframe0
	.4byte	.LFB246
	.4byte	.LFE246-.LFB246
	.byte	0x4
	.4byte	.LCFI81-.LFB246
	.byte	0xe
	.uleb128 0x4
	.byte	0x8e
	.uleb128 0x1
	.byte	0x4
	.4byte	.LCFI82-.LCFI81
	.byte	0xe
	.uleb128 0x10
	.byte	0x4
	.4byte	.LCFI83-.LCFI82
	.byte	0xe
	.uleb128 0x4
	.align	2
.LEFDE128:
.LSFDE130:
	.4byte	.LEFDE130-.LASFDE130
.LASFDE130:
	.4byte	.Lframe0
	.4byte	.LFB247
	.4byte	.LFE247-.LFB247
	.byte	0x4
	.4byte	.LCFI84-.LFB247
	.byte	0xe
	.uleb128 0x4
	.byte	0x8e
	.uleb128 0x1
	.byte	0x4
	.4byte	.LCFI85-.LCFI84
	.byte	0xe
	.uleb128 0x10
	.byte	0x4
	.4byte	.LCFI86-.LCFI85
	.byte	0xe
	.uleb128 0x4
	.align	2
.LEFDE130:
.LSFDE132:
	.4byte	.LEFDE132-.LASFDE132
.LASFDE132:
	.4byte	.Lframe0
	.4byte	.LFB248
	.4byte	.LFE248-.LFB248
	.byte	0x4
	.4byte	.LCFI87-.LFB248
	.byte	0xe
	.uleb128 0x4
	.byte	0x8e
	.uleb128 0x1
	.byte	0x4
	.4byte	.LCFI88-.LCFI87
	.byte	0xe
	.uleb128 0x10
	.byte	0x4
	.4byte	.LCFI89-.LCFI88
	.byte	0xe
	.uleb128 0x4
	.align	2
.LEFDE132:
.LSFDE134:
	.4byte	.LEFDE134-.LASFDE134
.LASFDE134:
	.4byte	.Lframe0
	.4byte	.LFB249
	.4byte	.LFE249-.LFB249
	.byte	0x4
	.4byte	.LCFI90-.LFB249
	.byte	0xe
	.uleb128 0x8
	.byte	0x83
	.uleb128 0x2
	.byte	0x8e
	.uleb128 0x1
	.align	2
.LEFDE134:
	.text
.Letext0:
	.file 3 "C:/Program Files/SEGGER/SEGGER Embedded Studio for ARM 4.30c/include/stdint.h"
	.file 4 "C:/Program Files/SEGGER/SEGGER Embedded Studio for ARM 4.30c/include/__crossworks.h"
	.file 5 "C:/Users/IIoTUser/AppData/Local/SEGGER/SEGGER Embedded Studio/v3/packages/CMSIS_4/CMSIS/Include/core_cm4.h"
	.file 6 "../../../sdk_components/toolchain/system_nrf52.h"
	.file 7 "../../../sdk_components/device/nrf52.h"
	.file 8 "../../../sdk_components/drivers_nrf/hal/nrf_twi.h"
	.file 9 "../../../sdk_components/drivers_nrf/twi_master/nrf_drv_twi.h"
	.file 10 "../../../include/drivers/drv_ccs811.h"
	.file 11 "../../../sdk_components/softdevice/s132/headers/nrf_nvic.h"
	.file 12 "C:/Program Files/SEGGER/SEGGER Embedded Studio for ARM 4.30c/include/stdio.h"
	.file 13 "../../../sdk_components/libraries/util/app_util.h"